Archive member included       because of file (symbol)

C:/projects/agb/lib//libagbsyscall.a(AgbSysCpuSet.o)
                              ../Sound/out/m4aLib.o (CpuSet)
C:/projects/agb/lib//libagbsyscall.a(AgbSysRLUnCompVram.o)
                              SprEng_Animate.o (RLUnCompVram)
../data/Titles//libTitlesGFX.a(Start_Copy.o)
                              StartUp.o (Start_Copy_Palette)
../data/Titles//libTitlesGFX.a(Start_THQ.o)
                              Fade.o (Start_THQ_Character)
../data/Titles//libTitlesGFX.a(Start_Nick.o)
                              Fade.o (Start_Nick_Character)
../data/Titles//libTitlesGFX.a(Start_Climax.o)
                              Fade.o (Start_Climax_Character)
../data/Titles//libTitlesGFX.a(libFontGame.o)
                              Scroll_Engine.o (libFontGame_Char)
../data/Titles//libTitlesGFX.a(libFontMenu.o)
                              Titles.o (libFontMenu_Char)
../data/Titles//libTitlesGFX.a(menuback.o)
                              Titles.o (menuback_Character)
../data/Titles//libTitlesGFX.a(HubMap.o)
                              Hub.o (HubMap_Palette)
../data/Titles//libTitlesGFX.a(menul2.o)
                              Titles.o (menul2_Palette)
../data/Titles//libTitlesGFX.a(menuback2.o)
                              Fade.o (menuback2_Character)
../data/Titles//libTitlesGFX.a(menuback3.o)
                              Fade.o (menuback3_Character)
../data/Titles//libTitlesGFX.a(menuback4.o)
                              Fade.o (menuback4_Character)
../data/Titles//libTitlesGFX.a(menuback5.o)
                              Fade.o (menuback5_Character)
../data/Titles//libTitlesGFX.a(menuback6.o)
                              Fade.o (menuback6_Character)
../data/Titles//libTitlesGFX.a(icons.o)
                              Titles.o (icons_Char)
../data/Maps//libMaps.a(CHAPTER01_LEVEL0101.o)
                              Scroll_Engine.o (CHAPTER01_LEVEL0101_BACK)
../data/Maps//libMaps.a(CHAPTER01_LEVEL0102.o)
                              Scroll_Engine.o (CHAPTER01_LEVEL0102_BACK)
../data/Maps//libMaps.a(CHAPTER01_LEVEL0103.o)
                              Scroll_Engine.o (CHAPTER01_LEVEL0103_BACK)
../data/Maps//libMaps.a(CHAPTER01_LEVEL0104.o)
                              Scroll_Engine.o (CHAPTER01_LEVEL0104_BACK)
../data/Maps//libMaps.a(CHAPTER01_LEVEL0105.o)
                              Scroll_Engine.o (CHAPTER01_LEVEL0105_BACK)
../data/Maps//libMaps.a(CHAPTER01_LEVEL0201.o)
                              Scroll_Engine.o (CHAPTER01_LEVEL0201_BACK)
../data/Maps//libMaps.a(CHAPTER01_LEVEL0204.o)
                              Scroll_Engine.o (CHAPTER01_LEVEL0204_BACK)
../data/Maps//libMaps.a(CHAPTER01_LEVEL0301.o)
                              Scroll_Engine.o (CHAPTER01_LEVEL0301_BACK)
../data/Maps//libMaps.a(CHAPTER01_LEVEL0302.o)
                              Scroll_Engine.o (CHAPTER01_LEVEL0302_BACK)
../data/Maps//libMaps.a(CHAPTER01_LEVEL0303.o)
                              Scroll_Engine.o (CHAPTER01_LEVEL0303_BACK)
../data/Maps//libMaps.a(CHAPTER01_LEVEL0401.o)
                              Scroll_Engine.o (CHAPTER01_LEVEL0401_BACK)
../data/Maps//libMaps.a(CHAPTER02_LEVEL0101.o)
                              Scroll_Engine.o (CHAPTER02_LEVEL0101_BACK)
../data/Maps//libMaps.a(CHAPTER02_LEVEL0102.o)
                              Scroll_Engine.o (CHAPTER02_LEVEL0102_BACK)
../data/Maps//libMaps.a(CHAPTER02_LEVEL0103.o)
                              Scroll_Engine.o (CHAPTER02_LEVEL0103_BACK)
../data/Maps//libMaps.a(CHAPTER02_LEVEL0104.o)
                              Scroll_Engine.o (CHAPTER02_LEVEL0104_BACK)
../data/Maps//libMaps.a(CHAPTER02_LEVEL0105.o)
                              Scroll_Engine.o (CHAPTER02_LEVEL0105_BACK)
../data/Maps//libMaps.a(CHAPTER02_LEVEL0106.o)
                              Scroll_Engine.o (CHAPTER02_LEVEL0106_BACK)
../data/Maps//libMaps.a(CHAPTER02_LEVEL0107.o)
                              Scroll_Engine.o (CHAPTER02_LEVEL0107_BACK)
../data/Maps//libMaps.a(CHAPTER02_LEVEL0108.o)
                              Scroll_Engine.o (CHAPTER02_LEVEL0108_BACK)
../data/Maps//libMaps.a(CHAPTER02_LEVEL0201.o)
                              Scroll_Engine.o (CHAPTER02_LEVEL0201_BACK)
../data/Maps//libMaps.a(CHAPTER02_LEVEL0202.o)
                              Scroll_Engine.o (CHAPTER02_LEVEL0202_BACK)
../data/Maps//libMaps.a(CHAPTER02_LEVEL0203.o)
                              Scroll_Engine.o (CHAPTER02_LEVEL0203_BACK)
../data/Maps//libMaps.a(CHAPTER02_LEVEL0204.o)
                              Scroll_Engine.o (CHAPTER02_LEVEL0204_BACK)
../data/Maps//libMaps.a(CHAPTER02_LEVEL0301.o)
                              Scroll_Engine.o (CHAPTER02_LEVEL0301_BACK)
../data/Maps//libMaps.a(CHAPTER02_LEVEL0302.o)
                              Scroll_Engine.o (CHAPTER02_LEVEL0302_BACK)
../data/Maps//libMaps.a(CHAPTER02_LEVEL0303.o)
                              Scroll_Engine.o (CHAPTER02_LEVEL0303_BACK)
../data/Maps//libMaps.a(CHAPTER02_LEVEL0304.o)
                              Scroll_Engine.o (CHAPTER02_LEVEL0304_BACK)
../data/Maps//libMaps.a(CHAPTER02_LEVEL0305.o)
                              Scroll_Engine.o (CHAPTER02_LEVEL0305_BACK)
../data/Maps//libMaps.a(CHAPTER02_LEVEL0306.o)
                              Scroll_Engine.o (CHAPTER02_LEVEL0306_BACK)
../data/Maps//libMaps.a(CHAPTER02_LEVEL0401.o)
                              Scroll_Engine.o (CHAPTER02_LEVEL0401_BACK)
../data/Maps//libMaps.a(CHAPTER02_LEVEL0402.o)
                              Scroll_Engine.o (CHAPTER02_LEVEL0402_BACK)
../data/Maps//libMaps.a(CHAPTER02_LEVEL0403.o)
                              Scroll_Engine.o (CHAPTER02_LEVEL0403_BACK)
../data/Maps//libMaps.a(CHAPTER02_LEVEL0404.o)
                              Scroll_Engine.o (CHAPTER02_LEVEL0404_BACK)
../data/Maps//libMaps.a(CHAPTER02_LEVEL0405.o)
                              Scroll_Engine.o (CHAPTER02_LEVEL0405_BACK)
../data/Maps//libMaps.a(CHAPTER03_LEVEL0101.o)
                              Scroll_Engine.o (CHAPTER03_LEVEL0101_BACK)
../data/Maps//libMaps.a(CHAPTER03_LEVEL0102.o)
                              Scroll_Engine.o (CHAPTER03_LEVEL0102_BACK)
../data/Maps//libMaps.a(CHAPTER03_LEVEL0103.o)
                              Scroll_Engine.o (CHAPTER03_LEVEL0103_BACK)
../data/Maps//libMaps.a(CHAPTER03_LEVEL0104.o)
                              Scroll_Engine.o (CHAPTER03_LEVEL0104_BACK)
../data/Maps//libMaps.a(CHAPTER03_LEVEL0105.o)
                              Scroll_Engine.o (CHAPTER03_LEVEL0105_BACK)
../data/Maps//libMaps.a(CHAPTER03_LEVEL0106.o)
                              Scroll_Engine.o (CHAPTER03_LEVEL0106_BACK)
../data/Maps//libMaps.a(CHAPTER03_LEVEL0107.o)
                              Scroll_Engine.o (CHAPTER03_LEVEL0107_BACK)
../data/Maps//libMaps.a(CHAPTER03_LEVEL0201.o)
                              Scroll_Engine.o (CHAPTER03_LEVEL0201_BACK)
../data/Maps//libMaps.a(CHAPTER03_LEVEL0202.o)
                              Scroll_Engine.o (CHAPTER03_LEVEL0202_BACK)
../data/Maps//libMaps.a(CHAPTER03_LEVEL0203.o)
                              Scroll_Engine.o (CHAPTER03_LEVEL0203_BACK)
../data/Maps//libMaps.a(CHAPTER03_LEVEL0204.o)
                              Scroll_Engine.o (CHAPTER03_LEVEL0204_BACK)
../data/Maps//libMaps.a(CHAPTER03_LEVEL0205.o)
                              Scroll_Engine.o (CHAPTER03_LEVEL0205_BACK)
../data/Maps//libMaps.a(CHAPTER03_LEVEL0206.o)
                              Scroll_Engine.o (CHAPTER03_LEVEL0206_BACK)
../data/Maps//libMaps.a(CHAPTER03_LEVEL0207.o)
                              Scroll_Engine.o (CHAPTER03_LEVEL0207_BACK)
../data/Maps//libMaps.a(CHAPTER03_LEVEL0301.o)
                              Scroll_Engine.o (CHAPTER03_LEVEL0301_BACK)
../data/Maps//libMaps.a(CHAPTER03_LEVEL0302.o)
                              Scroll_Engine.o (CHAPTER03_LEVEL0302_BACK)
../data/Maps//libMaps.a(CHAPTER03_LEVEL0303.o)
                              Scroll_Engine.o (CHAPTER03_LEVEL0303_BACK)
../data/Maps//libMaps.a(CHAPTER03_LEVEL0304.o)
                              Scroll_Engine.o (CHAPTER03_LEVEL0304_BACK)
../data/Maps//libMaps.a(CHAPTER03_LEVEL0305.o)
                              Scroll_Engine.o (CHAPTER03_LEVEL0305_BACK)
../data/Maps//libMaps.a(CHAPTER03_LEVEL0306.o)
                              Scroll_Engine.o (CHAPTER03_LEVEL0306_BACK)
../data/Maps//libMaps.a(CHAPTER03_LEVEL0401.o)
                              Scroll_Engine.o (CHAPTER03_LEVEL0401_BACK)
../data/Maps//libMaps.a(CHAPTER03_LEVEL0402.o)
                              Scroll_Engine.o (CHAPTER03_LEVEL0402_BACK)
../data/Maps//libMaps.a(CHAPTER03_LEVEL0403.o)
                              Scroll_Engine.o (CHAPTER03_LEVEL0403_BACK)
../data/Maps//libMaps.a(CHAPTER03_LEVEL0404.o)
                              Scroll_Engine.o (CHAPTER03_LEVEL0404_BACK)
../data/Maps//libMaps.a(CHAPTER03_LEVEL0405.o)
                              Scroll_Engine.o (CHAPTER03_LEVEL0405_BACK)
../data/Maps//libMaps.a(CHAPTER03_LEVEL0406.o)
                              Scroll_Engine.o (CHAPTER03_LEVEL0406_BACK)
../data/Maps//libMaps.a(CHAPTER04_LEVEL0101.o)
                              Scroll_Engine.o (CHAPTER04_LEVEL0101_BACK)
../data/Maps//libMaps.a(CHAPTER04_LEVEL0102.o)
                              Scroll_Engine.o (CHAPTER04_LEVEL0102_BACK)
../data/Maps//libMaps.a(CHAPTER04_LEVEL0103.o)
                              Scroll_Engine.o (CHAPTER04_LEVEL0103_BACK)
../data/Maps//libMaps.a(CHAPTER04_LEVEL0104.o)
                              Scroll_Engine.o (CHAPTER04_LEVEL0104_BACK)
../data/Maps//libMaps.a(CHAPTER04_LEVEL0201.o)
                              Scroll_Engine.o (CHAPTER04_LEVEL0201_BACK)
../data/Maps//libMaps.a(CHAPTER04_LEVEL0202.o)
                              Scroll_Engine.o (CHAPTER04_LEVEL0202_BACK)
../data/Maps//libMaps.a(CHAPTER04_LEVEL0203.o)
                              Scroll_Engine.o (CHAPTER04_LEVEL0203_BACK)
../data/Maps//libMaps.a(CHAPTER04_LEVEL0204.o)
                              Scroll_Engine.o (CHAPTER04_LEVEL0204_BACK)
../data/Maps//libMaps.a(CHAPTER04_LEVEL0205.o)
                              Scroll_Engine.o (CHAPTER04_LEVEL0205_BACK)
../data/Maps//libMaps.a(CHAPTER04_LEVEL0301.o)
                              Scroll_Engine.o (CHAPTER04_LEVEL0301_BACK)
../data/Maps//libMaps.a(CHAPTER04_LEVEL0302.o)
                              Scroll_Engine.o (CHAPTER04_LEVEL0302_BACK)
../data/Maps//libMaps.a(CHAPTER04_LEVEL0303.o)
                              Scroll_Engine.o (CHAPTER04_LEVEL0303_BACK)
../data/Maps//libMaps.a(CHAPTER04_LEVEL0304.o)
                              Scroll_Engine.o (CHAPTER04_LEVEL0304_BACK)
../data/Maps//libMaps.a(CHAPTER04_LEVEL0305.o)
                              Scroll_Engine.o (CHAPTER04_LEVEL0305_BACK)
../data/Maps//libMaps.a(CHAPTER04_LEVEL0306.o)
                              Scroll_Engine.o (CHAPTER04_LEVEL0306_BACK)
../data/Maps//libMaps.a(CHAPTER04_LEVEL0401.o)
                              Scroll_Engine.o (CHAPTER04_LEVEL0401_BACK)
../data/Maps//libMaps.a(CHAPTER04_LEVEL0402.o)
                              Scroll_Engine.o (CHAPTER04_LEVEL0402_BACK)
../data/Maps//libMaps.a(CHAPTER04_LEVEL0403.o)
                              Scroll_Engine.o (CHAPTER04_LEVEL0403_BACK)
../data/Maps//libMaps.a(CHAPTER04_LEVEL0404.o)
                              Scroll_Engine.o (CHAPTER04_LEVEL0404_BACK)
../data/Maps//libMaps.a(CHAPTER04_LEVEL0405.o)
                              Scroll_Engine.o (CHAPTER04_LEVEL0405_BACK)
../data/Maps//libMaps.a(CHAPTER04_LEVEL0406.o)
                              Scroll_Engine.o (CHAPTER04_LEVEL0406_BACK)
../data/Maps//libMaps.a(CHAPTER04_LEVEL0407.o)
                              Scroll_Engine.o (CHAPTER04_LEVEL0407_BACK)
../data/Maps//libMaps.a(CHAPTER05_LEVEL0101.o)
                              Scroll_Engine.o (CHAPTER05_LEVEL0101_BACK)
../data/Maps//libMaps.a(CHAPTER05_LEVEL0102.o)
                              Scroll_Engine.o (CHAPTER05_LEVEL0102_BACK)
../data/Maps//libMaps.a(CHAPTER05_LEVEL0103.o)
                              Scroll_Engine.o (CHAPTER05_LEVEL0103_BACK)
../data/Maps//libMaps.a(CHAPTER05_LEVEL0201.o)
                              Scroll_Engine.o (CHAPTER05_LEVEL0201_BACK)
../data/Maps//libMaps.a(CHAPTER05_LEVEL0202.o)
                              Scroll_Engine.o (CHAPTER05_LEVEL0202_BACK)
../data/Maps//libMaps.a(CHAPTER05_LEVEL0203.o)
                              Scroll_Engine.o (CHAPTER05_LEVEL0203_BACK)
../data/Maps//libMaps.a(CHAPTER05_LEVEL0204.o)
                              Scroll_Engine.o (CHAPTER05_LEVEL0204_BACK)
../data/Maps//libMaps.a(CHAPTER05_LEVEL0301.o)
                              Scroll_Engine.o (CHAPTER05_LEVEL0301_BACK)
../data/Maps//libMaps.a(CHAPTER05_LEVEL0302.o)
                              Scroll_Engine.o (CHAPTER05_LEVEL0302_BACK)
../data/Maps//libMaps.a(CHAPTER05_LEVEL0303.o)
                              Scroll_Engine.o (CHAPTER05_LEVEL0303_BACK)
../data/Maps//libMaps.a(CHAPTER05_LEVEL0304.o)
                              Scroll_Engine.o (CHAPTER05_LEVEL0304_BACK)
../data/Maps//libMaps.a(CHAPTER05_LEVEL0305.o)
                              Scroll_Engine.o (CHAPTER05_LEVEL0305_BACK)
../data/Maps//libMaps.a(CHAPTER05_LEVEL0401.o)
                              Scroll_Engine.o (CHAPTER05_LEVEL0401_BACK)
../data/Maps//libMaps.a(CHAPTER05_LEVEL0402.o)
                              Scroll_Engine.o (CHAPTER05_LEVEL0402_BACK)
../data/Maps//libMaps.a(CHAPTER05_LEVEL0403.o)
                              Scroll_Engine.o (CHAPTER05_LEVEL0403_BACK)
../data/Maps//libMaps.a(CHAPTER05_LEVEL0404.o)
                              Scroll_Engine.o (CHAPTER05_LEVEL0404_BACK)
../data/Maps//libMaps.a(CHAPTER05_LEVEL0405.o)
                              Scroll_Engine.o (CHAPTER05_LEVEL0405_BACK)
../data/Maps//libMaps.a(CHAPTER05_LEVEL0406.o)
                              Scroll_Engine.o (CHAPTER05_LEVEL0406_BACK)
../data/Maps//libMaps.a(CHAPTER05_LEVEL0407.o)
                              Scroll_Engine.o (CHAPTER05_LEVEL0407_BACK)
../data/Maps//libMaps.a(CHAPTER05_LEVEL0408.o)
                              Scroll_Engine.o (CHAPTER05_LEVEL0408_BACK)
../data/Maps//libMaps.a(CHAPTER06_LEVEL0101.o)
                              Scroll_Engine.o (CHAPTER06_LEVEL0101_BACK)
../data/Maps//libMaps.a(CHAPTER06_LEVEL0102.o)
                              Scroll_Engine.o (CHAPTER06_LEVEL0102_BACK)
../data/Maps//libMaps.a(CHAPTER06_LEVEL0301.o)
                              Scroll_Engine.o (CHAPTER06_LEVEL0301_BACK)
../data/Maps//libMaps.a(CHAPTER06_LEVEL0302.o)
                              Scroll_Engine.o (CHAPTER06_LEVEL0302_BACK)
../data/Maps//libMaps.a(CHAPTER06_LEVEL0501.o)
                              Scroll_Engine.o (CHAPTER06_LEVEL0501_BACK)
../data/Maps//libMaps.a(CHAPTER06_LEVEL0502.o)
                              Scroll_Engine.o (CHAPTER06_LEVEL0502_BACK)
../data/Maps//libMaps.a(CHAPTER06_LEVEL0503.o)
                              Scroll_Engine.o (CHAPTER06_LEVEL0503_BACK)
../data/Maps//libMaps.a(CHAPTER06_LEVEL0504.o)
                              Scroll_Engine.o (CHAPTER06_LEVEL0504_BACK)
../data/Maps//libMaps.a(CHAPTER06_LEVEL0505.o)
                              Scroll_Engine.o (CHAPTER06_LEVEL0505_BACK)
../data/Maps//libMaps.a(CHAPTER01_LEVEL01_TILEBANK.o)
                              Scroll_Engine.o (CHAPTER01_LEVEL01_TILEBANK)
../data/Maps//libMaps.a(CHAPTER01_LEVEL02_TILEBANK.o)
                              Scroll_Engine.o (CHAPTER01_LEVEL02_TILEBANK)
../data/Maps//libMaps.a(CHAPTER01_LEVEL03_TILEBANK.o)
                              Scroll_Engine.o (CHAPTER01_LEVEL03_TILEBANK)
../data/Maps//libMaps.a(CHAPTER01_LEVEL04_TILEBANK.o)
                              Scroll_Engine.o (CHAPTER01_LEVEL04_TILEBANK)
../data/Maps//libMaps.a(CHAPTER02_LEVEL01_TILEBANK.o)
                              Scroll_Engine.o (CHAPTER02_LEVEL01_TILEBANK)
../data/Maps//libMaps.a(CHAPTER02_LEVEL02_TILEBANK.o)
                              Scroll_Engine.o (CHAPTER02_LEVEL02_TILEBANK)
../data/Maps//libMaps.a(CHAPTER02_LEVEL03_TILEBANK.o)
                              Scroll_Engine.o (CHAPTER02_LEVEL03_TILEBANK)
../data/Maps//libMaps.a(CHAPTER02_LEVEL04_TILEBANK.o)
                              Scroll_Engine.o (CHAPTER02_LEVEL04_TILEBANK)
../data/Maps//libMaps.a(CHAPTER03_LEVEL01_TILEBANK.o)
                              Scroll_Engine.o (CHAPTER03_LEVEL01_TILEBANK)
../data/Maps//libMaps.a(CHAPTER03_LEVEL02_TILEBANK.o)
                              Scroll_Engine.o (CHAPTER03_LEVEL02_TILEBANK)
../data/Maps//libMaps.a(CHAPTER03_LEVEL03_TILEBANK.o)
                              Scroll_Engine.o (CHAPTER03_LEVEL03_TILEBANK)
../data/Maps//libMaps.a(CHAPTER03_LEVEL04_TILEBANK.o)
                              Scroll_Engine.o (CHAPTER03_LEVEL04_TILEBANK)
../data/Maps//libMaps.a(CHAPTER04_LEVEL01_TILEBANK.o)
                              Scroll_Engine.o (CHAPTER04_LEVEL01_TILEBANK)
../data/Maps//libMaps.a(CHAPTER04_LEVEL02_TILEBANK.o)
                              Scroll_Engine.o (CHAPTER04_LEVEL02_TILEBANK)
../data/Maps//libMaps.a(CHAPTER04_LEVEL03_TILEBANK.o)
                              Scroll_Engine.o (CHAPTER04_LEVEL03_TILEBANK)
../data/Maps//libMaps.a(CHAPTER04_LEVEL04_TILEBANK.o)
                              Scroll_Engine.o (CHAPTER04_LEVEL04_TILEBANK)
../data/Maps//libMaps.a(CHAPTER05_LEVEL01_TILEBANK.o)
                              Scroll_Engine.o (CHAPTER05_LEVEL01_TILEBANK)
../data/Maps//libMaps.a(CHAPTER05_LEVEL02_TILEBANK.o)
                              Scroll_Engine.o (CHAPTER05_LEVEL02_TILEBANK)
../data/Maps//libMaps.a(CHAPTER05_LEVEL03_TILEBANK.o)
                              Scroll_Engine.o (CHAPTER05_LEVEL03_TILEBANK)
../data/Maps//libMaps.a(CHAPTER05_LEVEL04_TILEBANK.o)
                              Scroll_Engine.o (CHAPTER05_LEVEL04_TILEBANK)
../data/Maps//libMaps.a(CHAPTER06_LEVEL01_TILEBANK.o)
                              Scroll_Engine.o (CHAPTER06_LEVEL01_TILEBANK)
../data/Maps//libMaps.a(CHAPTER06_LEVEL03_TILEBANK.o)
                              Scroll_Engine.o (CHAPTER06_LEVEL03_TILEBANK)
../data/Maps//libMaps.a(CHAPTER06_LEVEL05_TILEBANK.o)
                              Scroll_Engine.o (CHAPTER06_LEVEL05_TILEBANK)
../data/Sprites/SpongeBob//libSpongeBob_Sprs.a(buttbounceend0001_RL.o)
                              SprEng_Animate.o (buttbounceend0001_Char_RL)
../data/Sprites/SpongeBob//libSpongeBob_Sprs.a(buttbounceend0003_RL.o)
                              SprEng_Animate.o (buttbounceend0003_Char_RL)
../data/Sprites/SpongeBob//libSpongeBob_Sprs.a(buttbounceend0005_RL.o)
                              SprEng_Animate.o (buttbounceend0005_Char_RL)
../data/Sprites/SpongeBob//libSpongeBob_Sprs.a(buttbounceend0007_RL.o)
                              SprEng_Animate.o (buttbounceend0007_Char_RL)
../data/Sprites/SpongeBob//libSpongeBob_Sprs.a(buttbouncestart0001_RL.o)
                              SprEng_Animate.o (buttbouncestart0001_Char_RL)
../data/Sprites/SpongeBob//libSpongeBob_Sprs.a(buttbouncestart0003_RL.o)
                              SprEng_Animate.o (buttbouncestart0003_Char_RL)
../data/Sprites/SpongeBob//libSpongeBob_Sprs.a(buttbouncestart0005_RL.o)
                              SprEng_Animate.o (buttbouncestart0005_Char_RL)
../data/Sprites/SpongeBob//libSpongeBob_Sprs.a(buttbouncestart0007_RL.o)
                              SprEng_Animate.o (buttbouncestart0007_Char_RL)
../data/Sprites/SpongeBob//libSpongeBob_Sprs.a(deathbackwards0001_RL.o)
                              SprEng_Animate.o (deathbackwards0001_Char_RL)
../data/Sprites/SpongeBob//libSpongeBob_Sprs.a(deathbackwards0003_RL.o)
                              SprEng_Animate.o (deathbackwards0003_Char_RL)
../data/Sprites/SpongeBob//libSpongeBob_Sprs.a(deathbackwards0005_RL.o)
                              SprEng_Animate.o (deathbackwards0005_Char_RL)
../data/Sprites/SpongeBob//libSpongeBob_Sprs.a(deathbackwards0007_RL.o)
                              SprEng_Animate.o (deathbackwards0007_Char_RL)
../data/Sprites/SpongeBob//libSpongeBob_Sprs.a(deathbackwards0009_RL.o)
                              SprEng_Animate.o (deathbackwards0009_Char_RL)
../data/Sprites/SpongeBob//libSpongeBob_Sprs.a(deathbackwards0011_RL.o)
                              SprEng_Animate.o (deathbackwards0011_Char_RL)
../data/Sprites/SpongeBob//libSpongeBob_Sprs.a(deathbackwards0013_RL.o)
                              SprEng_Animate.o (deathbackwards0013_Char_RL)
../data/Sprites/SpongeBob//libSpongeBob_Sprs.a(deathbackwards0015_RL.o)
                              SprEng_Animate.o (deathbackwards0015_Char_RL)
../data/Sprites/SpongeBob//libSpongeBob_Sprs.a(deathdry0001_RL.o)
                              SprEng_Animate.o (deathdry0001_Char_RL)
../data/Sprites/SpongeBob//libSpongeBob_Sprs.a(deathdry0003_RL.o)
                              SprEng_Animate.o (deathdry0003_Char_RL)
../data/Sprites/SpongeBob//libSpongeBob_Sprs.a(deathdry0005_RL.o)
                              SprEng_Animate.o (deathdry0005_Char_RL)
../data/Sprites/SpongeBob//libSpongeBob_Sprs.a(deathdry0007_RL.o)
                              SprEng_Animate.o (deathdry0007_Char_RL)
../data/Sprites/SpongeBob//libSpongeBob_Sprs.a(deathdry0009_RL.o)
                              SprEng_Animate.o (deathdry0009_Char_RL)
../data/Sprites/SpongeBob//libSpongeBob_Sprs.a(deathdry0011_RL.o)
                              SprEng_Animate.o (deathdry0011_Char_RL)
../data/Sprites/SpongeBob//libSpongeBob_Sprs.a(deathdry0013_RL.o)
                              SprEng_Animate.o (deathdry0013_Char_RL)
../data/Sprites/SpongeBob//libSpongeBob_Sprs.a(deathdry0015_RL.o)
                              SprEng_Animate.o (deathdry0015_Char_RL)
../data/Sprites/SpongeBob//libSpongeBob_Sprs.a(deathforwards0001_RL.o)
                              SprEng_Animate.o (deathforwards0001_Char_RL)
../data/Sprites/SpongeBob//libSpongeBob_Sprs.a(deathforwards0003_RL.o)
                              SprEng_Animate.o (deathforwards0003_Char_RL)
../data/Sprites/SpongeBob//libSpongeBob_Sprs.a(deathforwards0005_RL.o)
                              SprEng_Animate.o (deathforwards0005_Char_RL)
../data/Sprites/SpongeBob//libSpongeBob_Sprs.a(deathforwards0007_RL.o)
                              SprEng_Animate.o (deathforwards0007_Char_RL)
../data/Sprites/SpongeBob//libSpongeBob_Sprs.a(deathforwards0009_RL.o)
                              SprEng_Animate.o (deathforwards0009_Char_RL)
../data/Sprites/SpongeBob//libSpongeBob_Sprs.a(deathforwards0011_RL.o)
                              SprEng_Animate.o (deathforwards0011_Char_RL)
../data/Sprites/SpongeBob//libSpongeBob_Sprs.a(deathforwards0013_RL.o)
                              SprEng_Animate.o (deathforwards0013_Char_RL)
../data/Sprites/SpongeBob//libSpongeBob_Sprs.a(deathforwards0015_RL.o)
                              SprEng_Animate.o (deathforwards0015_Char_RL)
../data/Sprites/SpongeBob//libSpongeBob_Sprs.a(deathspin0001_RL.o)
                              SprEng_Animate.o (deathspin0001_Char_RL)
../data/Sprites/SpongeBob//libSpongeBob_Sprs.a(deathspin0003_RL.o)
                              SprEng_Animate.o (deathspin0003_Char_RL)
../data/Sprites/SpongeBob//libSpongeBob_Sprs.a(deathspin0005_RL.o)
                              SprEng_Animate.o (deathspin0005_Char_RL)
../data/Sprites/SpongeBob//libSpongeBob_Sprs.a(deathspin0007_RL.o)
                              SprEng_Animate.o (deathspin0007_Char_RL)
../data/Sprites/SpongeBob//libSpongeBob_Sprs.a(deathspin0009_RL.o)
                              SprEng_Animate.o (deathspin0009_Char_RL)
../data/Sprites/SpongeBob//libSpongeBob_Sprs.a(deathspin0011_RL.o)
                              SprEng_Animate.o (deathspin0011_Char_RL)
../data/Sprites/SpongeBob//libSpongeBob_Sprs.a(deathspin0013_RL.o)
                              SprEng_Animate.o (deathspin0013_Char_RL)
../data/Sprites/SpongeBob//libSpongeBob_Sprs.a(deathspin0015_RL.o)
                              SprEng_Animate.o (deathspin0015_Char_RL)
../data/Sprites/SpongeBob//libSpongeBob_Sprs.a(deathsquash0001_RL.o)
                              SprEng_Animate.o (deathsquash0001_Char_RL)
../data/Sprites/SpongeBob//libSpongeBob_Sprs.a(deathsquash0003_RL.o)
                              SprEng_Animate.o (deathsquash0003_Char_RL)
../data/Sprites/SpongeBob//libSpongeBob_Sprs.a(deathsquash0005_RL.o)
                              SprEng_Animate.o (deathsquash0005_Char_RL)
../data/Sprites/SpongeBob//libSpongeBob_Sprs.a(deathsquash0007_RL.o)
                              SprEng_Animate.o (deathsquash0007_Char_RL)
../data/Sprites/SpongeBob//libSpongeBob_Sprs.a(deathsquash0009_RL.o)
                              SprEng_Animate.o (deathsquash0009_Char_RL)
../data/Sprites/SpongeBob//libSpongeBob_Sprs.a(deathsquash0011_RL.o)
                              SprEng_Animate.o (deathsquash0011_Char_RL)
../data/Sprites/SpongeBob//libSpongeBob_Sprs.a(deathsquash0013_RL.o)
                              SprEng_Animate.o (deathsquash0013_Char_RL)
../data/Sprites/SpongeBob//libSpongeBob_Sprs.a(deathsquash0015_RL.o)
                              SprEng_Animate.o (deathsquash0015_Char_RL)
../data/Sprites/SpongeBob//libSpongeBob_Sprs.a(deathtar0001_RL.o)
                              SprEng_Animate.o (deathtar0001_Char_RL)
../data/Sprites/SpongeBob//libSpongeBob_Sprs.a(deathtar0003_RL.o)
                              SprEng_Animate.o (deathtar0003_Char_RL)
../data/Sprites/SpongeBob//libSpongeBob_Sprs.a(deathtar0005_RL.o)
                              SprEng_Animate.o (deathtar0005_Char_RL)
../data/Sprites/SpongeBob//libSpongeBob_Sprs.a(deathtar0007_RL.o)
                              SprEng_Animate.o (deathtar0007_Char_RL)
../data/Sprites/SpongeBob//libSpongeBob_Sprs.a(deathtarstart0001_RL.o)
                              SprEng_Animate.o (deathtarstart0001_Char_RL)
../data/Sprites/SpongeBob//libSpongeBob_Sprs.a(deathtarstart0003_RL.o)
                              SprEng_Animate.o (deathtarstart0003_Char_RL)
../data/Sprites/SpongeBob//libSpongeBob_Sprs.a(deathtarstart0005_RL.o)
                              SprEng_Animate.o (deathtarstart0005_Char_RL)
../data/Sprites/SpongeBob//libSpongeBob_Sprs.a(deathtarstart0007_RL.o)
                              SprEng_Animate.o (deathtarstart0007_Char_RL)
../data/Sprites/SpongeBob//libSpongeBob_Sprs.a(electricshock0001_RL.o)
                              SprEng_Animate.o (electricshock0001_Char_RL)
../data/Sprites/SpongeBob//libSpongeBob_Sprs.a(electricshock0003_RL.o)
                              SprEng_Animate.o (electricshock0003_Char_RL)
../data/Sprites/SpongeBob//libSpongeBob_Sprs.a(electricshock0005_RL.o)
                              SprEng_Animate.o (electricshock0005_Char_RL)
../data/Sprites/SpongeBob//libSpongeBob_Sprs.a(electricshock0007_RL.o)
                              SprEng_Animate.o (electricshock0007_Char_RL)
../data/Sprites/SpongeBob//libSpongeBob_Sprs.a(electricshockend0000_RL.o)
                              SprEng_Animate.o (electricshockend0000_Char_RL)
../data/Sprites/SpongeBob//libSpongeBob_Sprs.a(electricshockend0001_RL.o)
                              SprEng_Animate.o (electricshockend0001_Char_RL)
../data/Sprites/SpongeBob//libSpongeBob_Sprs.a(electricshockstart0000_RL.o)
                              SprEng_Animate.o (electricshockstart0000_Char_RL)
../data/Sprites/SpongeBob//libSpongeBob_Sprs.a(electricshockstart0001_RL.o)
                              SprEng_Animate.o (electricshockstart0001_Char_RL)
../data/Sprites/SpongeBob//libSpongeBob_Sprs.a(faceback0001_RL.o)
                              SprEng_Animate.o (faceback0001_Char_RL)
../data/Sprites/SpongeBob//libSpongeBob_Sprs.a(faceback0003_RL.o)
                              SprEng_Animate.o (faceback0003_Char_RL)
../data/Sprites/SpongeBob//libSpongeBob_Sprs.a(faceback0005_RL.o)
                              SprEng_Animate.o (faceback0005_Char_RL)
../data/Sprites/SpongeBob//libSpongeBob_Sprs.a(faceback0007_RL.o)
                              SprEng_Animate.o (faceback0007_Char_RL)
../data/Sprites/SpongeBob//libSpongeBob_Sprs.a(facefront0000_RL.o)
                              SprEng_Animate.o (facefront0000_Char_RL)
../data/Sprites/SpongeBob//libSpongeBob_Sprs.a(facefront0001_RL.o)
                              SprEng_Animate.o (facefront0001_Char_RL)
../data/Sprites/SpongeBob//libSpongeBob_Sprs.a(fall0001_RL.o)
                              SprEng_Animate.o (fall0001_Char_RL)
../data/Sprites/SpongeBob//libSpongeBob_Sprs.a(fall0003_RL.o)
                              SprEng_Animate.o (fall0003_Char_RL)
../data/Sprites/SpongeBob//libSpongeBob_Sprs.a(fall0005_RL.o)
                              SprEng_Animate.o (fall0005_Char_RL)
../data/Sprites/SpongeBob//libSpongeBob_Sprs.a(fireend0000_RL.o)
                              SprEng_Animate.o (fireend0000_Char_RL)
../data/Sprites/SpongeBob//libSpongeBob_Sprs.a(fireend0001_RL.o)
                              SprEng_Animate.o (fireend0001_Char_RL)
../data/Sprites/SpongeBob//libSpongeBob_Sprs.a(firestart0000_RL.o)
                              SprEng_Animate.o (firestart0000_Char_RL)
../data/Sprites/SpongeBob//libSpongeBob_Sprs.a(firestart0001_RL.o)
                              SprEng_Animate.o (firestart0001_Char_RL)
../data/Sprites/SpongeBob//libSpongeBob_Sprs.a(firestart0002_RL.o)
                              SprEng_Animate.o (firestart0002_Char_RL)
../data/Sprites/SpongeBob//libSpongeBob_Sprs.a(firestart0003_RL.o)
                              SprEng_Animate.o (firestart0003_Char_RL)
../data/Sprites/SpongeBob//libSpongeBob_Sprs.a(getup0001_RL.o)
                              SprEng_Animate.o (getup0001_Char_RL)
../data/Sprites/SpongeBob//libSpongeBob_Sprs.a(getup0003_RL.o)
                              SprEng_Animate.o (getup0003_Char_RL)
../data/Sprites/SpongeBob//libSpongeBob_Sprs.a(getup0005_RL.o)
                              SprEng_Animate.o (getup0005_Char_RL)
../data/Sprites/SpongeBob//libSpongeBob_Sprs.a(getup0007_RL.o)
                              SprEng_Animate.o (getup0007_Char_RL)
../data/Sprites/SpongeBob//libSpongeBob_Sprs.a(getuprun0001_RL.o)
                              SprEng_Animate.o (getuprun0001_Char_RL)
../data/Sprites/SpongeBob//libSpongeBob_Sprs.a(getuprun0003_RL.o)
                              SprEng_Animate.o (getuprun0003_Char_RL)
../data/Sprites/SpongeBob//libSpongeBob_Sprs.a(getuprun0005_RL.o)
                              SprEng_Animate.o (getuprun0005_Char_RL)
../data/Sprites/SpongeBob//libSpongeBob_Sprs.a(getuprun0007_RL.o)
                              SprEng_Animate.o (getuprun0007_Char_RL)
../data/Sprites/SpongeBob//libSpongeBob_Sprs.a(hitground0001_RL.o)
                              SprEng_Animate.o (hitground0001_Char_RL)
../data/Sprites/SpongeBob//libSpongeBob_Sprs.a(hitground0003_RL.o)
                              SprEng_Animate.o (hitground0003_Char_RL)
../data/Sprites/SpongeBob//libSpongeBob_Sprs.a(hitground0005_RL.o)
                              SprEng_Animate.o (hitground0005_Char_RL)
../data/Sprites/SpongeBob//libSpongeBob_Sprs.a(hitground0007_RL.o)
                              SprEng_Animate.o (hitground0007_Char_RL)
../data/Sprites/SpongeBob//libSpongeBob_Sprs.a(hover0001_RL.o)
                              SprEng_Animate.o (hover0001_Char_RL)
../data/Sprites/SpongeBob//libSpongeBob_Sprs.a(hover0003_RL.o)
                              SprEng_Animate.o (hover0003_Char_RL)
../data/Sprites/SpongeBob//libSpongeBob_Sprs.a(hover0005_RL.o)
                              SprEng_Animate.o (hover0005_Char_RL)
../data/Sprites/SpongeBob//libSpongeBob_Sprs.a(hover0007_RL.o)
                              SprEng_Animate.o (hover0007_Char_RL)
../data/Sprites/SpongeBob//libSpongeBob_Sprs.a(hoverend0000_RL.o)
                              SprEng_Animate.o (hoverend0000_Char_RL)
../data/Sprites/SpongeBob//libSpongeBob_Sprs.a(hoverend0001_RL.o)
                              SprEng_Animate.o (hoverend0001_Char_RL)
../data/Sprites/SpongeBob//libSpongeBob_Sprs.a(hoverstart0000_RL.o)
                              SprEng_Animate.o (hoverstart0000_Char_RL)
../data/Sprites/SpongeBob//libSpongeBob_Sprs.a(hoverstart0001_RL.o)
                              SprEng_Animate.o (hoverstart0001_Char_RL)
../data/Sprites/SpongeBob//libSpongeBob_Sprs.a(idlebouncehead0001_RL.o)
                              SprEng_Animate.o (idlebouncehead0001_Char_RL)
../data/Sprites/SpongeBob//libSpongeBob_Sprs.a(idlebouncehead0003_RL.o)
                              SprEng_Animate.o (idlebouncehead0003_Char_RL)
../data/Sprites/SpongeBob//libSpongeBob_Sprs.a(idlebouncehead0005_RL.o)
                              SprEng_Animate.o (idlebouncehead0005_Char_RL)
../data/Sprites/SpongeBob//libSpongeBob_Sprs.a(idlebouncehead0007_RL.o)
                              SprEng_Animate.o (idlebouncehead0007_Char_RL)
../data/Sprites/SpongeBob//libSpongeBob_Sprs.a(idlebouncehead0009_RL.o)
                              SprEng_Animate.o (idlebouncehead0009_Char_RL)
../data/Sprites/SpongeBob//libSpongeBob_Sprs.a(idlebouncehead0011_RL.o)
                              SprEng_Animate.o (idlebouncehead0011_Char_RL)
../data/Sprites/SpongeBob//libSpongeBob_Sprs.a(idlebouncehead0013_RL.o)
                              SprEng_Animate.o (idlebouncehead0013_Char_RL)
../data/Sprites/SpongeBob//libSpongeBob_Sprs.a(idlebouncehead0015_RL.o)
                              SprEng_Animate.o (idlebouncehead0015_Char_RL)
../data/Sprites/SpongeBob//libSpongeBob_Sprs.a(idlebounceheadend0001_RL.o)
                              SprEng_Animate.o (idlebounceheadend0001_Char_RL)
../data/Sprites/SpongeBob//libSpongeBob_Sprs.a(idlebounceheadend0003_RL.o)
                              SprEng_Animate.o (idlebounceheadend0003_Char_RL)
../data/Sprites/SpongeBob//libSpongeBob_Sprs.a(idlebounceheadend0005_RL.o)
                              SprEng_Animate.o (idlebounceheadend0005_Char_RL)
../data/Sprites/SpongeBob//libSpongeBob_Sprs.a(idlebounceheadend0007_RL.o)
                              SprEng_Animate.o (idlebounceheadend0007_Char_RL)
../data/Sprites/SpongeBob//libSpongeBob_Sprs.a(idlebounceheadstart0001_RL.o)
                              SprEng_Animate.o (idlebounceheadstart0001_Char_RL)
../data/Sprites/SpongeBob//libSpongeBob_Sprs.a(idlebounceheadstart0003_RL.o)
                              SprEng_Animate.o (idlebounceheadstart0003_Char_RL)
../data/Sprites/SpongeBob//libSpongeBob_Sprs.a(idlebounceheadstart0005_RL.o)
                              SprEng_Animate.o (idlebounceheadstart0005_Char_RL)
../data/Sprites/SpongeBob//libSpongeBob_Sprs.a(idlebounceheadstart0007_RL.o)
                              SprEng_Animate.o (idlebounceheadstart0007_Char_RL)
../data/Sprites/SpongeBob//libSpongeBob_Sprs.a(idlebreathe0000_RL.o)
                              SprEng_Animate.o (idlebreathe0000_Char_RL)
../data/Sprites/SpongeBob//libSpongeBob_Sprs.a(idlebreathe0001_RL.o)
                              SprEng_Animate.o (idlebreathe0001_Char_RL)
../data/Sprites/SpongeBob//libSpongeBob_Sprs.a(idlebreathe0002_RL.o)
                              SprEng_Animate.o (idlebreathe0002_Char_RL)
../data/Sprites/SpongeBob//libSpongeBob_Sprs.a(idlebreathe0003_RL.o)
                              SprEng_Animate.o (idlebreathe0003_Char_RL)
../data/Sprites/SpongeBob//libSpongeBob_Sprs.a(idlefaces0001_RL.o)
                              SprEng_Animate.o (idlefaces0001_Char_RL)
../data/Sprites/SpongeBob//libSpongeBob_Sprs.a(idlefaces0003_RL.o)
                              SprEng_Animate.o (idlefaces0003_Char_RL)
../data/Sprites/SpongeBob//libSpongeBob_Sprs.a(idlefaces0005_RL.o)
                              SprEng_Animate.o (idlefaces0005_Char_RL)
../data/Sprites/SpongeBob//libSpongeBob_Sprs.a(idlefaces0007_RL.o)
                              SprEng_Animate.o (idlefaces0007_Char_RL)
../data/Sprites/SpongeBob//libSpongeBob_Sprs.a(idlefacesend0001_RL.o)
                              SprEng_Animate.o (idlefacesend0001_Char_RL)
../data/Sprites/SpongeBob//libSpongeBob_Sprs.a(idlefacesend0003_RL.o)
                              SprEng_Animate.o (idlefacesend0003_Char_RL)
../data/Sprites/SpongeBob//libSpongeBob_Sprs.a(idlefacesend0005_RL.o)
                              SprEng_Animate.o (idlefacesend0005_Char_RL)
../data/Sprites/SpongeBob//libSpongeBob_Sprs.a(idlefacesend0007_RL.o)
                              SprEng_Animate.o (idlefacesend0007_Char_RL)
../data/Sprites/SpongeBob//libSpongeBob_Sprs.a(idlefacesstart0000_RL.o)
                              SprEng_Animate.o (idlefacesstart0000_Char_RL)
../data/Sprites/SpongeBob//libSpongeBob_Sprs.a(idlefacesstart0001_RL.o)
                              SprEng_Animate.o (idlefacesstart0001_Char_RL)
../data/Sprites/SpongeBob//libSpongeBob_Sprs.a(idlehoola0001_RL.o)
                              SprEng_Animate.o (idlehoola0001_Char_RL)
../data/Sprites/SpongeBob//libSpongeBob_Sprs.a(idlehoola0003_RL.o)
                              SprEng_Animate.o (idlehoola0003_Char_RL)
../data/Sprites/SpongeBob//libSpongeBob_Sprs.a(idlehoola0005_RL.o)
                              SprEng_Animate.o (idlehoola0005_Char_RL)
../data/Sprites/SpongeBob//libSpongeBob_Sprs.a(idlehoola0007_RL.o)
                              SprEng_Animate.o (idlehoola0007_Char_RL)
../data/Sprites/SpongeBob//libSpongeBob_Sprs.a(idlehoola0009_RL.o)
                              SprEng_Animate.o (idlehoola0009_Char_RL)
../data/Sprites/SpongeBob//libSpongeBob_Sprs.a(idlehoola0011_RL.o)
                              SprEng_Animate.o (idlehoola0011_Char_RL)
../data/Sprites/SpongeBob//libSpongeBob_Sprs.a(idlehoola0013_RL.o)
                              SprEng_Animate.o (idlehoola0013_Char_RL)
../data/Sprites/SpongeBob//libSpongeBob_Sprs.a(idlehoola0015_RL.o)
                              SprEng_Animate.o (idlehoola0015_Char_RL)
../data/Sprites/SpongeBob//libSpongeBob_Sprs.a(idlekarate0001_RL.o)
                              SprEng_Animate.o (idlekarate0001_Char_RL)
../data/Sprites/SpongeBob//libSpongeBob_Sprs.a(idlekarate0003_RL.o)
                              SprEng_Animate.o (idlekarate0003_Char_RL)
../data/Sprites/SpongeBob//libSpongeBob_Sprs.a(idlekarate0005_RL.o)
                              SprEng_Animate.o (idlekarate0005_Char_RL)
../data/Sprites/SpongeBob//libSpongeBob_Sprs.a(idlekarate0007_RL.o)
                              SprEng_Animate.o (idlekarate0007_Char_RL)
../data/Sprites/SpongeBob//libSpongeBob_Sprs.a(idlekarate0009_RL.o)
                              SprEng_Animate.o (idlekarate0009_Char_RL)
../data/Sprites/SpongeBob//libSpongeBob_Sprs.a(idlekarate0011_RL.o)
                              SprEng_Animate.o (idlekarate0011_Char_RL)
../data/Sprites/SpongeBob//libSpongeBob_Sprs.a(idlekarate0013_RL.o)
                              SprEng_Animate.o (idlekarate0013_Char_RL)
../data/Sprites/SpongeBob//libSpongeBob_Sprs.a(idlekarate0015_RL.o)
                              SprEng_Animate.o (idlekarate0015_Char_RL)
../data/Sprites/SpongeBob//libSpongeBob_Sprs.a(idlesleep0001_RL.o)
                              SprEng_Animate.o (idlesleep0001_Char_RL)
../data/Sprites/SpongeBob//libSpongeBob_Sprs.a(idlesleep0003_RL.o)
                              SprEng_Animate.o (idlesleep0003_Char_RL)
../data/Sprites/SpongeBob//libSpongeBob_Sprs.a(idlesleep0005_RL.o)
                              SprEng_Animate.o (idlesleep0005_Char_RL)
../data/Sprites/SpongeBob//libSpongeBob_Sprs.a(idlesleep0007_RL.o)
                              SprEng_Animate.o (idlesleep0007_Char_RL)
../data/Sprites/SpongeBob//libSpongeBob_Sprs.a(idlesleepend0001_RL.o)
                              SprEng_Animate.o (idlesleepend0001_Char_RL)
../data/Sprites/SpongeBob//libSpongeBob_Sprs.a(idlesleepend0003_RL.o)
                              SprEng_Animate.o (idlesleepend0003_Char_RL)
../data/Sprites/SpongeBob//libSpongeBob_Sprs.a(idlesleepstart0001_RL.o)
                              SprEng_Animate.o (idlesleepstart0001_Char_RL)
../data/Sprites/SpongeBob//libSpongeBob_Sprs.a(idlesleepstart0003_RL.o)
                              SprEng_Animate.o (idlesleepstart0003_Char_RL)
../data/Sprites/SpongeBob//libSpongeBob_Sprs.a(idlesplitpants0001_RL.o)
                              SprEng_Animate.o (idlesplitpants0001_Char_RL)
../data/Sprites/SpongeBob//libSpongeBob_Sprs.a(idlesplitpants0003_RL.o)
                              SprEng_Animate.o (idlesplitpants0003_Char_RL)
../data/Sprites/SpongeBob//libSpongeBob_Sprs.a(idlesplitpants0005_RL.o)
                              SprEng_Animate.o (idlesplitpants0005_Char_RL)
../data/Sprites/SpongeBob//libSpongeBob_Sprs.a(idlesplitpants0007_RL.o)
                              SprEng_Animate.o (idlesplitpants0007_Char_RL)
../data/Sprites/SpongeBob//libSpongeBob_Sprs.a(idlesplitpants0009_RL.o)
                              SprEng_Animate.o (idlesplitpants0009_Char_RL)
../data/Sprites/SpongeBob//libSpongeBob_Sprs.a(idlesplitpants0011_RL.o)
                              SprEng_Animate.o (idlesplitpants0011_Char_RL)
../data/Sprites/SpongeBob//libSpongeBob_Sprs.a(idlesplitpants0013_RL.o)
                              SprEng_Animate.o (idlesplitpants0013_Char_RL)
../data/Sprites/SpongeBob//libSpongeBob_Sprs.a(idlesplitpants0015_RL.o)
                              SprEng_Animate.o (idlesplitpants0015_Char_RL)
../data/Sprites/SpongeBob//libSpongeBob_Sprs.a(idlesplitpants0017_RL.o)
                              SprEng_Animate.o (idlesplitpants0017_Char_RL)
../data/Sprites/SpongeBob//libSpongeBob_Sprs.a(idlesplitpants0019_RL.o)
                              SprEng_Animate.o (idlesplitpants0019_Char_RL)
../data/Sprites/SpongeBob//libSpongeBob_Sprs.a(idlesplitpants0021_RL.o)
                              SprEng_Animate.o (idlesplitpants0021_Char_RL)
../data/Sprites/SpongeBob//libSpongeBob_Sprs.a(idlesplitpants0023_RL.o)
                              SprEng_Animate.o (idlesplitpants0023_Char_RL)
../data/Sprites/SpongeBob//libSpongeBob_Sprs.a(idleweapon0001_RL.o)
                              SprEng_Animate.o (idleweapon0001_Char_RL)
../data/Sprites/SpongeBob//libSpongeBob_Sprs.a(idleweapon0003_RL.o)
                              SprEng_Animate.o (idleweapon0003_Char_RL)
../data/Sprites/SpongeBob//libSpongeBob_Sprs.a(idleweapon0005_RL.o)
                              SprEng_Animate.o (idleweapon0005_Char_RL)
../data/Sprites/SpongeBob//libSpongeBob_Sprs.a(idleweapon0007_RL.o)
                              SprEng_Animate.o (idleweapon0007_Char_RL)
../data/Sprites/SpongeBob//libSpongeBob_Sprs.a(idleweapon0009_RL.o)
                              SprEng_Animate.o (idleweapon0009_Char_RL)
../data/Sprites/SpongeBob//libSpongeBob_Sprs.a(idleweapon0011_RL.o)
                              SprEng_Animate.o (idleweapon0011_Char_RL)
../data/Sprites/SpongeBob//libSpongeBob_Sprs.a(idleweapon0013_RL.o)
                              SprEng_Animate.o (idleweapon0013_Char_RL)
../data/Sprites/SpongeBob//libSpongeBob_Sprs.a(idleweapon0015_RL.o)
                              SprEng_Animate.o (idleweapon0015_Char_RL)
../data/Sprites/SpongeBob//libSpongeBob_Sprs.a(idlewigglearms0001_RL.o)
                              SprEng_Animate.o (idlewigglearms0001_Char_RL)
../data/Sprites/SpongeBob//libSpongeBob_Sprs.a(idlewigglearms0003_RL.o)
                              SprEng_Animate.o (idlewigglearms0003_Char_RL)
../data/Sprites/SpongeBob//libSpongeBob_Sprs.a(idlewigglearms0005_RL.o)
                              SprEng_Animate.o (idlewigglearms0005_Char_RL)
../data/Sprites/SpongeBob//libSpongeBob_Sprs.a(idlewigglearms0007_RL.o)
                              SprEng_Animate.o (idlewigglearms0007_Char_RL)
../data/Sprites/SpongeBob//libSpongeBob_Sprs.a(idlewigglearms0009_RL.o)
                              SprEng_Animate.o (idlewigglearms0009_Char_RL)
../data/Sprites/SpongeBob//libSpongeBob_Sprs.a(idlewigglearms0011_RL.o)
                              SprEng_Animate.o (idlewigglearms0011_Char_RL)
../data/Sprites/SpongeBob//libSpongeBob_Sprs.a(idlewigglearms0013_RL.o)
                              SprEng_Animate.o (idlewigglearms0013_Char_RL)
../data/Sprites/SpongeBob//libSpongeBob_Sprs.a(idlewigglearms0015_RL.o)
                              SprEng_Animate.o (idlewigglearms0015_Char_RL)
../data/Sprites/SpongeBob//libSpongeBob_Sprs.a(idlewind0001_RL.o)
                              SprEng_Animate.o (idlewind0001_Char_RL)
../data/Sprites/SpongeBob//libSpongeBob_Sprs.a(idlewind0003_RL.o)
                              SprEng_Animate.o (idlewind0003_Char_RL)
../data/Sprites/SpongeBob//libSpongeBob_Sprs.a(idlewind0005_RL.o)
                              SprEng_Animate.o (idlewind0005_Char_RL)
../data/Sprites/SpongeBob//libSpongeBob_Sprs.a(idlewind0007_RL.o)
                              SprEng_Animate.o (idlewind0007_Char_RL)
../data/Sprites/SpongeBob//libSpongeBob_Sprs.a(idlewind0009_RL.o)
                              SprEng_Animate.o (idlewind0009_Char_RL)
../data/Sprites/SpongeBob//libSpongeBob_Sprs.a(idlewind0011_RL.o)
                              SprEng_Animate.o (idlewind0011_Char_RL)
../data/Sprites/SpongeBob//libSpongeBob_Sprs.a(idlewind0013_RL.o)
                              SprEng_Animate.o (idlewind0013_Char_RL)
../data/Sprites/SpongeBob//libSpongeBob_Sprs.a(idlewind0015_RL.o)
                              SprEng_Animate.o (idlewind0015_Char_RL)
../data/Sprites/SpongeBob//libSpongeBob_Sprs.a(jumpend0001_RL.o)
                              SprEng_Animate.o (jumpend0001_Char_RL)
../data/Sprites/SpongeBob//libSpongeBob_Sprs.a(jumpend0003_RL.o)
                              SprEng_Animate.o (jumpend0003_Char_RL)
../data/Sprites/SpongeBob//libSpongeBob_Sprs.a(karate0001_RL.o)
                              SprEng_Animate.o (karate0001_Char_RL)
../data/Sprites/SpongeBob//libSpongeBob_Sprs.a(karate0003_RL.o)
                              SprEng_Animate.o (karate0003_Char_RL)
../data/Sprites/SpongeBob//libSpongeBob_Sprs.a(karate0005_RL.o)
                              SprEng_Animate.o (karate0005_Char_RL)
../data/Sprites/SpongeBob//libSpongeBob_Sprs.a(karate0007_RL.o)
                              SprEng_Animate.o (karate0007_Char_RL)
../data/Sprites/SpongeBob//libSpongeBob_Sprs.a(karate0009_RL.o)
                              SprEng_Animate.o (karate0009_Char_RL)
../data/Sprites/SpongeBob//libSpongeBob_Sprs.a(karate0011_RL.o)
                              SprEng_Animate.o (karate0011_Char_RL)
../data/Sprites/SpongeBob//libSpongeBob_Sprs.a(karate0013_RL.o)
                              SprEng_Animate.o (karate0013_Char_RL)
../data/Sprites/SpongeBob//libSpongeBob_Sprs.a(karate0015_RL.o)
                              SprEng_Animate.o (karate0015_Char_RL)
../data/Sprites/SpongeBob//libSpongeBob_Sprs.a(netfirelob0001_RL.o)
                              SprEng_Animate.o (netfirelob0001_Char_RL)
../data/Sprites/SpongeBob//libSpongeBob_Sprs.a(netfirelob0003_RL.o)
                              SprEng_Animate.o (netfirelob0003_Char_RL)
../data/Sprites/SpongeBob//libSpongeBob_Sprs.a(netfirelob0005_RL.o)
                              SprEng_Animate.o (netfirelob0005_Char_RL)
../data/Sprites/SpongeBob//libSpongeBob_Sprs.a(netfirelob0007_RL.o)
                              SprEng_Animate.o (netfirelob0007_Char_RL)
../data/Sprites/SpongeBob//libSpongeBob_Sprs.a(netfirelob0009_RL.o)
                              SprEng_Animate.o (netfirelob0009_Char_RL)
../data/Sprites/SpongeBob//libSpongeBob_Sprs.a(netfirelob0011_RL.o)
                              SprEng_Animate.o (netfirelob0011_Char_RL)
../data/Sprites/SpongeBob//libSpongeBob_Sprs.a(netfirelob0013_RL.o)
                              SprEng_Animate.o (netfirelob0013_Char_RL)
../data/Sprites/SpongeBob//libSpongeBob_Sprs.a(netfirelob0015_RL.o)
                              SprEng_Animate.o (netfirelob0015_Char_RL)
../data/Sprites/SpongeBob//libSpongeBob_Sprs.a(netswipe0001_RL.o)
                              SprEng_Animate.o (netswipe0001_Char_RL)
../data/Sprites/SpongeBob//libSpongeBob_Sprs.a(netswipe0003_RL.o)
                              SprEng_Animate.o (netswipe0003_Char_RL)
../data/Sprites/SpongeBob//libSpongeBob_Sprs.a(netswipe0005_RL.o)
                              SprEng_Animate.o (netswipe0005_Char_RL)
../data/Sprites/SpongeBob//libSpongeBob_Sprs.a(netswipe0007_RL.o)
                              SprEng_Animate.o (netswipe0007_Char_RL)
../data/Sprites/SpongeBob//libSpongeBob_Sprs.a(netswipe0009_RL.o)
                              SprEng_Animate.o (netswipe0009_Char_RL)
../data/Sprites/SpongeBob//libSpongeBob_Sprs.a(netswipe0011_RL.o)
                              SprEng_Animate.o (netswipe0011_Char_RL)
../data/Sprites/SpongeBob//libSpongeBob_Sprs.a(netswipe0013_RL.o)
                              SprEng_Animate.o (netswipe0013_Char_RL)
../data/Sprites/SpongeBob//libSpongeBob_Sprs.a(netswipe0015_RL.o)
                              SprEng_Animate.o (netswipe0015_Char_RL)
../data/Sprites/SpongeBob//libSpongeBob_Sprs.a(run0000_RL.o)
                              SprEng_Animate.o (run0000_Char_RL)
../data/Sprites/SpongeBob//libSpongeBob_Sprs.a(run0001_RL.o)
                              SprEng_Animate.o (run0001_Char_RL)
../data/Sprites/SpongeBob//libSpongeBob_Sprs.a(run0002_RL.o)
                              SprEng_Animate.o (run0002_Char_RL)
../data/Sprites/SpongeBob//libSpongeBob_Sprs.a(run0003_RL.o)
                              SprEng_Animate.o (run0003_Char_RL)
../data/Sprites/SpongeBob//libSpongeBob_Sprs.a(run0004_RL.o)
                              SprEng_Animate.o (run0004_Char_RL)
../data/Sprites/SpongeBob//libSpongeBob_Sprs.a(run0005_RL.o)
                              SprEng_Animate.o (run0005_Char_RL)
../data/Sprites/SpongeBob//libSpongeBob_Sprs.a(run0006_RL.o)
                              SprEng_Animate.o (run0006_Char_RL)
../data/Sprites/SpongeBob//libSpongeBob_Sprs.a(run0007_RL.o)
                              SprEng_Animate.o (run0007_Char_RL)
../data/Sprites/SpongeBob//libSpongeBob_Sprs.a(run0008_RL.o)
                              SprEng_Animate.o (run0008_Char_RL)
../data/Sprites/SpongeBob//libSpongeBob_Sprs.a(run0009_RL.o)
                              SprEng_Animate.o (run0009_Char_RL)
../data/Sprites/SpongeBob//libSpongeBob_Sprs.a(run0010_RL.o)
                              SprEng_Animate.o (run0010_Char_RL)
../data/Sprites/SpongeBob//libSpongeBob_Sprs.a(run0011_RL.o)
                              SprEng_Animate.o (run0011_Char_RL)
../data/Sprites/SpongeBob//libSpongeBob_Sprs.a(run0012_RL.o)
                              SprEng_Animate.o (run0012_Char_RL)
../data/Sprites/SpongeBob//libSpongeBob_Sprs.a(run0013_RL.o)
                              SprEng_Animate.o (run0013_Char_RL)
../data/Sprites/SpongeBob//libSpongeBob_Sprs.a(run0014_RL.o)
                              SprEng_Animate.o (run0014_Char_RL)
../data/Sprites/SpongeBob//libSpongeBob_Sprs.a(run0015_RL.o)
                              SprEng_Animate.o (run0015_Char_RL)
../data/Sprites/SpongeBob//libSpongeBob_Sprs.a(soakup0001_RL.o)
                              SprEng_Animate.o (soakup0001_Char_RL)
../data/Sprites/SpongeBob//libSpongeBob_Sprs.a(soakup0003_RL.o)
                              SprEng_Animate.o (soakup0003_Char_RL)
../data/Sprites/SpongeBob//libSpongeBob_Sprs.a(soakup0005_RL.o)
                              SprEng_Animate.o (soakup0005_Char_RL)
../data/Sprites/SpongeBob//libSpongeBob_Sprs.a(soakup0007_RL.o)
                              SprEng_Animate.o (soakup0007_Char_RL)
../data/Sprites/SpongeBob//libSpongeBob_Sprs.a(teeterfront0001_RL.o)
                              SprEng_Animate.o (teeterfront0001_Char_RL)
../data/Sprites/SpongeBob//libSpongeBob_Sprs.a(teeterfront0003_RL.o)
                              SprEng_Animate.o (teeterfront0003_Char_RL)
../data/Sprites/SpongeBob//libSpongeBob_Sprs.a(teeterfront0005_RL.o)
                              SprEng_Animate.o (teeterfront0005_Char_RL)
../data/Sprites/SpongeBob//libSpongeBob_Sprs.a(teeterfront0007_RL.o)
                              SprEng_Animate.o (teeterfront0007_Char_RL)
../data/Sprites/SpongeBob//libSpongeBob_Sprs.a(teeterfront0009_RL.o)
                              SprEng_Animate.o (teeterfront0009_Char_RL)
../data/Sprites/SpongeBob//libSpongeBob_Sprs.a(teeterfront0011_RL.o)
                              SprEng_Animate.o (teeterfront0011_Char_RL)
../data/Sprites/SpongeBob//libSpongeBob_Sprs.a(teeterfront0013_RL.o)
                              SprEng_Animate.o (teeterfront0013_Char_RL)
../data/Sprites/SpongeBob//libSpongeBob_Sprs.a(teeterfront0015_RL.o)
                              SprEng_Animate.o (teeterfront0015_Char_RL)
../data/Sprites/SpongeBob//libSpongeBob_Sprs.a(walkforward0001_RL.o)
                              SprEng_Animate.o (walkforward0001_Char_RL)
../data/Sprites/SpongeBob//libSpongeBob_Sprs.a(walkforward0003_RL.o)
                              SprEng_Animate.o (walkforward0003_Char_RL)
../data/Sprites/SpongeBob//libSpongeBob_Sprs.a(walkforward0005_RL.o)
                              SprEng_Animate.o (walkforward0005_Char_RL)
../data/Sprites/SpongeBob//libSpongeBob_Sprs.a(walkforward0007_RL.o)
                              SprEng_Animate.o (walkforward0007_Char_RL)
../data/Sprites/SpongeBob//libSpongeBob_Sprs.a(walkforward0009_RL.o)
                              SprEng_Animate.o (walkforward0009_Char_RL)
../data/Sprites/SpongeBob//libSpongeBob_Sprs.a(walkforward0011_RL.o)
                              SprEng_Animate.o (walkforward0011_Char_RL)
../data/Sprites/SpongeBob//libSpongeBob_Sprs.a(walkforward0013_RL.o)
                              SprEng_Animate.o (walkforward0013_Char_RL)
../data/Sprites/SpongeBob//libSpongeBob_Sprs.a(walkforward0015_RL.o)
                              SprEng_Animate.o (walkforward0015_Char_RL)
../data/Sprites/NPC//libNPC_Sprs.a(patrick0001.o)
                              SprEng_Animate.o (patrick0001_Char)
../data/Sprites/Platforms//libPlatforms_Sprs.a(platform0001.o)
                              SprEng_Animate.o (platform0001_Char)
../data/Sprites/Monsters//libMonsters_Sprs.a(clamsidesnap0001.o)
                              SprEng_Animate.o (clamsidesnap0001_Char)
../data/Sprites/Monsters//libMonsters_Sprs.a(clamsidesnap0003.o)
                              SprEng_Animate.o (clamsidesnap0003_Char)
../data/Sprites/Monsters//libMonsters_Sprs.a(clamsidesnap0005.o)
                              SprEng_Animate.o (clamsidesnap0005_Char)
../data/Sprites/Monsters//libMonsters_Sprs.a(clamsidesnap0007.o)
                              SprEng_Animate.o (clamsidesnap0007_Char)
../data/Sprites/Monsters//libMonsters_Sprs.a(clamsnapup0001.o)
                              SprEng_Animate.o (clamsnapup0001_Char)
../data/Sprites/Monsters//libMonsters_Sprs.a(clamsnapup0003.o)
                              SprEng_Animate.o (clamsnapup0003_Char)
../data/Sprites/Monsters//libMonsters_Sprs.a(clamsnapup0005.o)
                              SprEng_Animate.o (clamsnapup0005_Char)
C:\PROGRA~1\Cygnus\thumbelf-000512\H-i686-cygwin32\bin/../lib/gcc-lib/thumb-elf/2.9-arm-000512/libgcc.a(_call_via_rX.o)
                              ../Sound/out/m4aLib.o (_call_via_r1)
C:\PROGRA~1\Cygnus\thumbelf-000512\H-i686-cygwin32\bin/../lib/gcc-lib/thumb-elf/2.9-arm-000512/libgcc.a(_divsi3.o)
                              Main.o (__divsi3)
C:\PROGRA~1\Cygnus\thumbelf-000512\H-i686-cygwin32\bin/../lib/gcc-lib/thumb-elf/2.9-arm-000512/libgcc.a(_dvmd_tls.o)
                              C:\PROGRA~1\Cygnus\thumbelf-000512\H-i686-cygwin32\bin/../lib/gcc-lib/thumb-elf/2.9-arm-000512/libgcc.a(_divsi3.o) (__div0)
C:\PROGRA~1\Cygnus\thumbelf-000512\H-i686-cygwin32\bin/../lib/gcc-lib/thumb-elf/2.9-arm-000512/../../../../thumb-elf/lib/libg.a(strlen.o)
                              Text_Sys.o (strlen)

Allocating common symbols
Common symbol       size              file

map_y_size_pixels_bg1
                    0x4               Main.o
g_pObjectBase       0x4               Game.o
numFreeObjects      0x4               Game.o
ScreenDelay         0x4               StartUp.o
m4a_sound           0xfb0             ../Sound/out/m4aLib.o
ObjectFreeList      0x190             Game.o
IdleSequencer       0x4               Game.o
map_ypos            0x4               Main.o
pAction_MapWidth    0x4               Main.o
gPushScrollY        0x4               Game.o
gTimer              0x4               Main.o
Lives               0x4               Main.o
pMid_Map            0x4               Main.o
map_x_size_pixels_bg1
                    0x4               Main.o
map_y_size_tiles_bg2
                    0x4               Main.o
map_y_size_tiles_bg1
                    0x4               Main.o
pMid_MapHeight      0x4               Main.o
map_x_size_tiles_bg2
                    0x4               Main.o
gKeyTap             0x4               Main.o
v_phase             0x4               Main.o
Bg3_ScreenDat       0x800             Main.o
gFade               0x4               Main.o
m4a_mplay000        0x40              ../Sound/out/SoundDat.o
ExtMPlyJmpTbl       0x90              ../Sound/out/m4aLib.o
Spatualas           0x4               Main.o
ObjectOAMBuffer     0x800             Game.o
temp                0x4               Titles.o
pCollision_Map      0x4               Main.o
ObjectUsedList      0x190             Game.o
Title               0x4               Titles.o
CurrentScreen       0x4               StartUp.o
gGameState          0x4               Main.o
rasttable           0x100             Main.o
old_map_xpos_bg2    0x4               Main.o
pTiles              0x4               Main.o
object_table        0x2580            Game.o
pAction_MapHeight   0x4               Main.o
map_y_size_pixels_bg2
                    0x4               Main.o
CanSkip             0x4               StartUp.o
mapyoffset          0x4               Titles.o
pBack_Map           0x4               Main.o
map_x_size_tiles_bg1
                    0x4               Main.o
m4a_cgbchn          0x100             ../Sound/out/m4aLib.o
gSpriteMosaic       0x4               Game.o
numUsedObjects      0x4               Game.o
Continues           0x4               Main.o
m4a_mplay001        0x40              ../Sound/out/SoundDat.o
map_xpos            0x4               Main.o
IntrMainBuf         0x800             Main.o
mapxoffset          0x4               Titles.o
gGameParams         0x4               Main.o
pNextFreeObject     0x4               Game.o
old_map_ypos_bg1    0x4               Main.o
PlatFlag            0x4               Main.o
gOAMOffset          0x4               Game.o
pAction_Map         0x4               Main.o
Password_Buffer     0x8               Titles.o
pMid_MapWidth       0x4               Main.o
Bg1_ScreenDat       0x800             Main.o
gPushScrollX        0x4               Game.o
IntrCheck           0x4               Main.o
old_map_xpos_bg1    0x4               Main.o
old_map_ypos_bg2    0x4               Main.o
Bg2_ScreenDat       0x800             Main.o
pNextUsedObject     0x4               Game.o
Level               0x4               Main.o
ScreenDat           0x500             Text_Sys.o
m4a_memacc_area     0x10              ../Sound/out/SoundDat.o
map_x_size_pixels_bg2
                    0x4               Main.o
gKeyInput           0x4               Main.o
g_pObject           0x4               Game.o
gFadeLevel          0x4               Main.o

Memory Configuration

Name             Origin             Length             Attributes
*default*        0x00000000         0xffffffff

Linker script and memory map

LOAD Crt0.o
LOAD Main.o
LOAD Game.o
LOAD Titles.o
LOAD Random.o
LOAD StartUp.o
LOAD Scroll_Engine.o
LOAD SprEng_Control.o
LOAD SprEng_Animate.o
LOAD SprEng_Display.o
LOAD SprEng_Common.o
LOAD SprEng_SpongeBob.o
LOAD SprEng_NPC.o
LOAD SprEng_Platforms.o
LOAD SprEng_Monsters.o
LOAD Sinecos.o
LOAD Contours.o
LOAD Text_Sys.o
LOAD Collision.o
LOAD Hub.o
LOAD Fade.o
LOAD ../Sound/out/m4aLib.o
LOAD ../Sound/out/SoundDat.o
LOAD ../Sound/out/inst01.o
LOAD ../Sound/out/inst02.o
LOAD ../Sound/out/inst03.o
LOAD ../Sound/out/inst04.o
LOAD ../Sound/out/inst05.o
LOAD ../Sound/out/inst06.o
LOAD ../Sound/out/inst07.o
LOAD ../Sound/out/inst08.o
LOAD ../Sound/out/inst09.o
LOAD ../Sound/out/inst0a.o
LOAD ../Sound/out/inst0b.o
LOAD ../Sound/out/inst0c.o
LOAD ../Sound/out/inst0d.o
LOAD ../Sound/out/inst0e.o
LOAD ../Sound/out/inst0f.o
LOAD ../Sound/out/inst10.o
LOAD ../Sound/out/inst11.o
LOAD ../Sound/out/inst12.o
LOAD ../Sound/out/inst13.o
LOAD ../Sound/out/inst14.o
LOAD ../Sound/out/inst15.o
LOAD ../Sound/out/inst16.o
LOAD ../Sound/out/inst17.o
LOAD ../Sound/out/inst18.o
LOAD ../Sound/out/inst19.o
LOAD ../Sound/out/inst1a.o
LOAD ../Sound/out/inst1b.o
LOAD ../Sound/out/inst1c.o
LOAD ../Sound/out/inst1d.o
LOAD ../Sound/out/inst1e.o
LOAD ../Sound/out/inst1f.o
LOAD ../Sound/out/inst20.o
LOAD ../Sound/out/inst21.o
LOAD ../Sound/out/inst22.o
LOAD ../Sound/out/inst23.o
LOAD ../Sound/out/inst24.o
LOAD ../Sound/out/inst25.o
LOAD ../Sound/out/inst26.o
LOAD ../Sound/out/inst27.o
LOAD ../Sound/out/inst28.o
LOAD ../Sound/out/inst29.o
LOAD ../Sound/out/inst2a.o
LOAD ../Sound/out/inst2b.o
LOAD ../Sound/out/inst2c.o
LOAD ../Sound/out/inst2d.o
LOAD ../Sound/out/inst2e.o
LOAD ../Sound/out/inst2f.o
LOAD ../Sound/out/inst30.o
LOAD ../Sound/out/inst31.o
LOAD ../Sound/out/inst32.o
LOAD ../Sound/out/inst33.o
LOAD ../Sound/out/inst34.o
LOAD ../Sound/out/inst35.o
LOAD ../Sound/out/inst36.o
LOAD ../Sound/out/inst37.o
LOAD ../Sound/out/inst38.o
LOAD ../Sound/out/inst39.o
LOAD ../Sound/out/inst3a.o
LOAD ../Sound/out/inst3b.o
LOAD ../Sound/out/inst3c.o
LOAD ../Sound/out/inst3d.o
LOAD ../Sound/out/inst3e.o
LOAD ../Sound/out/inst3f.o
LOAD ../Sound/out/inst40.o
LOAD ../Sound/out/inst41.o
LOAD ../Sound/out/inst42.o
LOAD ../Sound/out/inst43.o
LOAD ../Sound/out/inst44.o
LOAD ../Sound/out/inst45.o
LOAD ../Sound/out/inst46.o
LOAD ../Sound/out/inst47.o
LOAD ../Sound/out/inst48.o
LOAD ../Sound/out/inst49.o
LOAD ../Sound/out/inst4a.o
LOAD ../Sound/out/inst4b.o
LOAD ../Sound/out/inst4c.o
LOAD ../Sound/out/inst4d.o
LOAD ../Sound/out/inst4e.o
LOAD ../Sound/out/inst4f.o
LOAD ../Sound/out/inst50.o
LOAD ../Sound/out/inst51.o
LOAD ../Sound/out/inst52.o
LOAD ../Sound/out/inst53.o
LOAD ../Sound/out/inst54.o
LOAD ../Sound/out/inst55.o
LOAD ../Sound/out/inst56.o
LOAD ../Sound/out/inst57.o
LOAD ../Sound/out/inst58.o
LOAD ../Sound/out/inst59.o
LOAD ../Sound/out/inst5a.o
LOAD ../Sound/out/inst5b.o
LOAD ../Sound/out/inst5c.o
LOAD ../Sound/out/inst5d.o
LOAD ../Sound/out/inst5e.o
LOAD ../Sound/out/inst5f.o
LOAD ../Sound/out/inst60.o
LOAD ../Sound/out/inst61.o
LOAD ../Sound/out/inst62.o
LOAD ../Sound/out/inst63.o
LOAD ../Sound/out/inst64.o
LOAD ../Sound/out/inst65.o
LOAD ../Sound/out/inst66.o
LOAD ../Sound/out/inst67.o
LOAD ../Sound/out/snd_anmf.o
LOAD ../Sound/out/snd_bblw.o
LOAD ../Sound/out/snd_bbou.o
LOAD ../Sound/out/snd_blam.o
LOAD ../Sound/out/snd_boun.o
LOAD ../Sound/out/snd_corl.o
LOAD ../Sound/out/snd_eat.o
LOAD ../Sound/out/snd_elec.o
LOAD ../Sound/out/snd_impc.o
LOAD ../Sound/out/snd_jfsh.o
LOAD ../Sound/out/snd_jump.o
LOAD ../Sound/out/snd_krte.o
LOAD ../Sound/out/snd_move.o
LOAD ../Sound/out/snd_net.o
LOAD ../Sound/out/snd_satk.o
LOAD ../Sound/out/snd_saw.o
LOAD ../Sound/out/snd_splt.o
LOAD ../Sound/out/snd_squk.o
LOAD ../Sound/out/snd_tndr.o
LOAD ../Sound/out/snd_watr.o
LOAD ../Sound/out/snd_whsh.o
LOAD ../Sound/out/snd_zlau.o
LOAD ../Sound/out/ch1_1_2.o
LOAD ../Sound/out/ch1_3.o
LOAD ../Sound/out/ch1_4.o
LOAD ../Sound/out/ch1_b.o
LOAD ../Sound/out/ch2_1_3.o
LOAD ../Sound/out/ch2_2.o
LOAD ../Sound/out/ch2_4.o
LOAD ../Sound/out/ch2_b.o
LOAD ../Sound/out/ch3_1.o
LOAD ../Sound/out/ch3_2_3.o
LOAD ../Sound/out/ch3_4.o
LOAD ../Sound/out/ch3_b1.o
LOAD ../Sound/out/ch3_b2.o
LOAD ../Sound/out/ch4_1.o
LOAD ../Sound/out/ch4_2_4.o
LOAD ../Sound/out/ch4_3.o
LOAD ../Sound/out/ch4_b.o
LOAD ../Sound/out/ch5_1_3.o
LOAD ../Sound/out/ch5_2.o
LOAD ../Sound/out/ch5_4.o
LOAD ../Sound/out/ch5_b.o
LOAD ../Sound/out/ch6_b_t.o
LOAD ../Sound/out/ch6_g.o
LOAD ../Sound/out/ch6_r_s.o
LOAD ../Sound/out/ch6_top.o
LOAD ../Sound/out/gameover.o
LOAD ../Sound/out/options.o
LOAD ../Sound/out/titlemusic.o
LOAD ../Sound/out/zfx00.o
LOAD ../Sound/out/zfx01.o
LOAD ../Sound/out/zfx02.o
LOAD ../Sound/out/zfx03.o
LOAD ../Sound/out/zfx04.o
LOAD ../Sound/out/zfx05.o
LOAD ../Sound/out/zfx06.o
LOAD ../Sound/out/zfx07.o
LOAD ../Sound/out/zfx08.o
LOAD ../Sound/out/zfx09.o
LOAD ../Sound/out/zfx10.o
LOAD ../Sound/out/zfx11.o
LOAD ../Sound/out/zfx12.o
LOAD ../Sound/out/zfx13.o
LOAD ../Sound/out/zfx14.o
LOAD ../Sound/out/zfx15.o
LOAD ../Sound/out/zfx16.o
LOAD ../Sound/out/zfx17.o
LOAD ../Sound/out/zfx18.o
LOAD ../Sound/out/zfx19.o
LOAD ../Sound/out/zfx20.o
LOAD ../Sound/out/zfx21.o
LOAD ../Sound/out/zfx22.o
LOAD ../Sound/out/zfx23.o
LOAD ../Sound/out/zfx24.o
LOAD ../Sound/out/zfx25.o
LOAD ../Sound/out/zfx26.o
LOAD ../Sound/out/zfx27.o
LOAD ../Sound/out/zfx28.o
LOAD ../Sound/out/zfx29.o
LOAD ../Sound/out/zfx30.o
LOAD ../Sound/out/zfx31.o
LOAD ../Sound/out/zfx32.o
LOAD ../Sound/out/zfx33.o
LOAD ../Sound/out/zfx34.o
LOAD ../Sound/out/zfx35.o
LOAD ../Sound/out/zfx36.o
LOAD ../Sound/out/zfx37.o
LOAD ../Sound/out/zfx38.o
LOAD ../Sound/out/zfx39.o
LOAD ../Sound/out/zfx40.o
LOAD ../Sound/out/zfx41.o
LOAD ../Sound/out/zfx42.o
LOAD ../Sound/out/zfx43.o
LOAD ../Sound/out/zfx44.o
LOAD ../Sound/out/zfx45.o
LOAD ../Sound/out/zfx46.o
LOAD ../Sound/out/zfx47.o
LOAD ../Sound/out/zfx48.o
LOAD ../Sound/out/zfx49.o
LOAD ../Sound/out/zfx50.o
LOAD ../Sound/out/zfx51.o
LOAD ../Sound/out/zfx52.o
LOAD ../Sound/out/zfx53.o
LOAD ../Sound/out/zfx54.o
LOAD ../Sound/out/zfx55.o
LOAD ../Sound/out/zfx56.o
LOAD ../Sound/out/zfx57.o
LOAD ../Sound/out/zfx58.o
LOAD ../Sound/out/zfx59.o
LOAD ../Sound/out/zfx60.o
LOAD ../Sound/out/zfx61.o
LOAD ../Sound/out/zfx62.o
LOAD ../Sound/out/zfx63.o
LOAD ../Sound/out/zfx64.o
LOAD ../Sound/out/zfx65.o
LOAD ../Sound/out/zfx66.o
LOAD ../Sound/out/zfx67.o
LOAD ../Sound/out/zfx68.o
LOAD ../Sound/out/zfx69.o
LOAD ../Sound/out/zfx70.o
LOAD ../Sound/out/zfx71.o
LOAD ../Sound/out/zfx72.o
LOAD ../Sound/out/zfx73.o
LOAD ../Sound/out/zfx74.o
LOAD ../Sound/out/zfx75.o
LOAD ../Sound/out/zfx76.o
LOAD ../Sound/out/zfx77.o
LOAD ../Sound/out/zfx78.o
LOAD ../Sound/out/zfx79.o
LOAD ../Sound/out/zfx80.o
LOAD ../Sound/out/zfx81.o
LOAD ../Sound/out/zfx82.o
LOAD ../Sound/out/zfx83.o
LOAD ../Sound/out/zfx84.o
LOAD ../Sound/out/zfx85.o
LOAD ../Sound/out/zfx86.o
LOAD ../Sound/out/zfx87.o
LOAD ../Sound/out/zfx88.o
LOAD ../Sound/out/zfx89.o
LOAD ../Sound/out/zfx90.o
LOAD ../Sound/out/zfx91.o
LOAD C:/projects/agb/lib//libisagbprn.a
LOAD C:/projects/agb/lib//libagbsyscall.a
LOAD ../data/Titles//libTitlesGFX.a
LOAD ../data/Maps//libMaps.a
LOAD ../data/Sprites/SpongeBob//libSpongeBob_Sprs.a
LOAD ../data/Sprites/NPC//libNPC_Sprs.a
LOAD ../data/Sprites/Platforms//libPlatforms_Sprs.a
LOAD ../data/Sprites/Monsters//libMonsters_Sprs.a
LOAD C:\PROGRA~1\Cygnus\thumbelf-000512\H-i686-cygwin32\bin/../lib/gcc-lib/thumb-elf/2.9-arm-000512/libgcc.a
LOAD C:\PROGRA~1\Cygnus\thumbelf-000512\H-i686-cygwin32\bin/../lib/gcc-lib/thumb-elf/2.9-arm-000512/../../../../thumb-elf/lib/libg.a
LOAD C:\PROGRA~1\Cygnus\thumbelf-000512\H-i686-cygwin32\bin/../lib/gcc-lib/thumb-elf/2.9-arm-000512/../../../../thumb-elf/lib/libc.a
LOAD C:\PROGRA~1\Cygnus\thumbelf-000512\H-i686-cygwin32\bin/../lib/gcc-lib/thumb-elf/2.9-arm-000512/libgcc.a
Address of section .text set to 0x8000000
Address of section .bss set to 0x3000000
                0x00008000                .=0x8000

.interp
 *(.interp)

.hash
 *(.hash)

.dynsym
 *(.dynsym)

.dynstr
 *(.dynstr)

.gnu.version
 *(.gnu.version)

.gnu.version_d
 *(.gnu.version_d)

.gnu.version_r
 *(.gnu.version_r)

.rel.text
 *(.rel.text)
 *(.rel.text.*)
 *(.rel.gnu.linkonce.t*)

.rela.text
 *(.rela.text)
 *(.rela.text.*)
 *(.rela.gnu.linkonce.t*)

.rel.data
 *(.rel.data)
 *(.rel.data.*)
 *(.rel.gnu.linkonce.d*)

.rela.data
 *(.rela.data)
 *(.rela.data.*)
 *(.rela.gnu.linkonce.d*)

.rel.rodata
 *(.rel.rodata)
 *(.rel.rodata.*)
 *(.rel.gnu.linkonce.r*)

.rela.rodata
 *(.rela.rodata)
 *(.rela.rodata.*)
 *(.rela.gnu.linkonce.r*)

.rel.got
 *(.rel.got)

.rela.got
 *(.rela.got)

.rel.ctors
 *(.rel.ctors)

.rela.ctors
 *(.rela.ctors)

.rel.dtors
 *(.rel.dtors)

.rela.dtors
 *(.rela.dtors)

.rel.init
 *(.rel.init)

.rela.init
 *(.rela.init)

.rel.fini
 *(.rel.fini)

.rela.fini
 *(.rela.fini)

.rel.bss
 *(.rel.bss)

.rela.bss
 *(.rela.bss)

.rel.plt
 *(.rel.plt)

.rela.plt
 *(.rela.plt)

.init
 *(.init)

.plt
 *(.plt)

.text           0x08000000     0xadac
 *(.text)
 .text          0x08000000      0x1d0 Crt0.o
                0x08000000                _start
                0x080000c0                start_vector
                0x080000fc                intr_main
 .text          0x080001d0      0x258 Main.o
                0x080003f8                IntrDummy
                0x080003fc                ReadJoypad
                0x0800038c                WaitVBlank
                0x080001d0                InitSystem
                0x080002b8                AgbMain
 .text          0x08000428      0x704 Game.o
                0x08000480                MainGame
                0x08000508                InitPalettes
                0x08000a50                CheckExit
                0x08000428                InitGame
                0x08000a1c                BlendOff
 .text          0x08000b2c      0xf2c Titles.o
                0x08000dbc                MainTitles
                0x08000b2c                InitTitles
 .text          0x08001a58       0xb8 Random.o
                0x08001aa4                GenRand
                0x08001ad0                InitRand
 .text          0x08001b10      0x158 StartUp.o
                0x08001b10                InitStartUpScreens
                0x08001bf0                MainStartUpScreens
 .text          0x08001c68     0x4200 Scroll_Engine.o
                0x08005b00                BuildScreen
                0x08005a38                SetBgTextControl
                0x08001c68                InitScroll
                0x08005c10                Scroll2Position
                0x08005bbc                UpdateScroll
                0x08005a60                SetDispControl
 .text          0x08005e68      0x2b4 SprEng_Control.o
                0x08005fa4                ObjectClear
                0x08005e68                ObjectControl1
                0x08006058                ObjectPut1
                0x080060b8                ObjectPut2
                0x08006020                ObjectGet1
                0x08005f48                ObjectInit
                0x08006118                SpriteControl00
                0x08005e9c                ObjectControl2
                0x08006064                ObjectGet2
 .text          0x0800611c       0xbc SprEng_Animate.o
                0x0800611c                ObjectAnimate
 .text          0x080061d8      0x498 SprEng_Display.o
                0x08006630                ObjectOff
                0x080061d8                ObjectDisplay
 .text          0x08006670      0x2f4 SprEng_Common.o
                0x080068e0                ClearOAMBuffer
                0x08006670                InitSprites
                0x08006944                UpdateOAMRam
 .text          0x08006964      0xb34 SprEng_SpongeBob.o
                0x08006964                SpriteControl01
 .text          0x08007498       0x5c SprEng_NPC.o
                0x08007498                SpriteControl02
 .text          0x080074f4       0x68 SprEng_Platforms.o
                0x080074f4                SpriteControl03
 .text          0x0800755c      0x198 SprEng_Monsters.o
                0x0800755c                SpriteControl04
 .text          0x080076f4       0x48 Sinecos.o
                0x08007724                FixInverse
                0x080076f4                FixMul
                0x0800770c                FixDiv
 .text          0x0800773c      0x2f8 Contours.o
                0x0800773c                CheckContour
 .text          0x08007a34      0x484 Text_Sys.o
                0x08007cc4                PutText
                0x08007e54                ClearTextLayer
                0x08007a34                PutTextBox
 .text          0x08007eb8      0x1e4 Collision.o
                0x08007ed4                CheckCollision
                0x08007eb8                SB2MovingPlats
 .text          0x0800809c      0x1b8 Hub.o
                0x08008158                MainHub
                0x0800809c                InitHub
 .text          0x08008254      0x934 Fade.o
                0x0800833c                NextMenuSetUp
                0x080082ac                FadeIn
                0x08008254                FadeOut
 .text          0x08008b88     0x2104 ../Sound/out/m4aLib.o
                0x08009ea0                SoundVSyncOff_rev01
                0x08009d10                SampFreqSet_rev01
                0x08008b88                umul3232H32
                0x08009ac8                MPlayExtender
                0x08009e4c                SoundClear_rev01
                0x0800ac20                ply_xsust
                0x08009c04                Clear64byte_rev
                0x0800ac0c                ply_xdeca
                0x08009bec                MusicPlayerJumpTableCopy
                0x0800abe4                ply_xtype
                0x0800a7c4                MPlayVolumeControl
                0x08009fd0                MPlayStart_rev01
                0x08008fc0                SoundMainBTM
                0x0800ac74                ply_xswee
                0x08009f1c                SoundVSyncOn_rev01
                0x08009a70                m4aMPlayFadeOut
                0x08009f58                MPlayOpen_rev01
                0x08009498                TrackStop_rev01
                0x08009a44                m4aMPlayAllContinue
                0x0800abf8                ply_xatta
                0x0800a1f8                MidiKey2CgbFr
                0x0800ac48                ply_xiecv
                0x080099d8                m4aSongNumContinue
                0x0800a99c                MPlayLFOSpeedSet
                0x08009800                DummyFunc
                0x08009820                MPlayFadeOut
                0x0800970c                ply_endtie_rev01
                0x08009a38                m4aMPlayContinue
                0x0800a79c                MPlayTempoControl
                0x0800a0c4                FadeOutBody_rev01
                0x0800a2a0                CgbOscOff
                0x0800ab88                ply_xxx
                0x0800979c                MidiKey2fr
                0x080098cc                m4aSoundMain
                0x0800ab9c                ply_xwave
                0x0800a144                TrkVolPitSet_rev01
                0x080098d8                m4aSongNumStart
                0x08009774                ply_lfos_rev01
                0x08009804                MPlayContinue
                0x08009788                ply_mod_rev01
                0x0800a82c                MPlayPitchControl
                0x0800a908                MP_clear_modM
                0x08009238                MPlayMain_rev01
                0x0800950c                ply_note_rev01
                0x08009c18                SoundInit_rev01
                0x08009904                m4aSongNumStartOrChange
                0x0800a928                MPlayModDepthSet
                0x08009950                m4aSongNumStartOrContinue
                0x0800a358                CgbSound
                0x0800a084                MPlayStop_rev01
                0x0800ac88                DummyFunc_rev
                0x0800ab68                ply_xcmd
                0x08009db4                SoundMode_rev01
                0x0800a8a0                MPlayPanpotControl
                0x08009bf0                ClearChain_rev
                0x080091ec                SoundVSync_rev01
                0x08009840                m4aSoundInit
                0x0800ac54                ply_xiecl
                0x0800ac60                ply_xleng
                0x08009a80                m4aMPlayImmInit
                0x0800aa10                ply_memacc
                0x08008b98                SoundMain
                0x08008c1c                SoundMainRAM
                0x08009a0c                m4aMPlayAllStop
                0x0800a2f0                CgbModVol
                0x08008fc0                Clear64byte
                0x080099a4                m4aSongNumStop
                0x08009028                MPlyJmpTblCopy
                0x0800ac34                ply_xrele
 .text          0x0800ac8c        0x4 C:/projects/agb/lib//libagbsyscall.a(AgbSysCpuSet.o)
                0x0800ac8c                CpuSet
 .text          0x0800ac90        0x4 C:/projects/agb/lib//libagbsyscall.a(AgbSysRLUnCompVram.o)
                0x0800ac90                RLUnCompVram
 .text          0x0800ac94       0x3c C:\PROGRA~1\Cygnus\thumbelf-000512\H-i686-cygwin32\bin/../lib/gcc-lib/thumb-elf/2.9-arm-000512/libgcc.a(_call_via_rX.o)
                0x0800ac9c                _call_via_r2
                0x0800acac                _call_via_r6
                0x0800aca8                _call_via_r5
                0x0800aca0                _call_via_r3
                0x0800acc0                _call_via_fp
                0x0800acb4                _call_via_r8
                0x0800acb0                _call_via_r7
                0x0800ac94                _call_via_r0
                0x0800acbc                _call_via_sl
                0x0800acc8                _call_via_sp
                0x0800acb8                _call_via_r9
                0x0800aca4                _call_via_r4
                0x0800ac98                _call_via_r1
                0x0800acc4                _call_via_ip
                0x0800accc                _call_via_lr
 .text          0x0800acd0       0x94 C:\PROGRA~1\Cygnus\thumbelf-000512\H-i686-cygwin32\bin/../lib/gcc-lib/thumb-elf/2.9-arm-000512/libgcc.a(_divsi3.o)
                0x0800acd0                __divsi3
 .text          0x0800ad64        0x4 C:\PROGRA~1\Cygnus\thumbelf-000512\H-i686-cygwin32\bin/../lib/gcc-lib/thumb-elf/2.9-arm-000512/libgcc.a(_dvmd_tls.o)
                0x0800ad64                __div0
 .text          0x0800ad68       0x44 C:\PROGRA~1\Cygnus\thumbelf-000512\H-i686-cygwin32\bin/../lib/gcc-lib/thumb-elf/2.9-arm-000512/../../../../thumb-elf/lib/libg.a(strlen.o)
                0x0800ad68                strlen
 *(.text.*)
 *(.stub)
 *(.gnu.warning)
 *(.gnu.linkonce.t*)
 *(.glue_7t)
 *(.glue_7)
                0x0800adac                _etext=.
                0x0800adac                PROVIDE (etext, .)

.fini
 *(.fini)

.rodata         0x0800adac    0x90518
 *(.rodata)
 .rodata        0x0800adac       0x38 Main.o
                0x0800adac                IntrTable
 .rodata        0x0800ade4      0xb64 Game.o
                0x0800ade8                Sprite_Palette
                0x0800ade4                Speech_Bubble_Palette
                0x0800afe8                ExitCoords
 .rodata        0x0800b948       0x10 Titles.o
                0x0800b94e                PasswordIconOffsetTable
                0x0800b948                Text_Palette
 .rodata        0x0800b958      0x280 Sinecos.o
                0x0800b958                SinCosTable
 .rodata        0x0800bbd8       0x48 Contours.o
                0x0800bc10                Contour08
                0x0800bbf0                Contour04
                0x0800bbe0                Contour02
                0x0800bc18                Contour09
                0x0800bbf8                Contour05
                0x0800bbe8                Contour03
                0x0800bc00                Contour06
                0x0800bbd8                Contour01
                0x0800bc08                Contour07
 .rodata        0x0800bc20      0x100 Text_Sys.o
                0x0800bc20                TextTileTable
 .rodata        0x0800bd20      0x2d8 ../Sound/out/m4aLib.o
                0x0800be64                FreqTable
                0x0800bf30                CgbFrTable
                0x0800bd20                MPlyJmpTbl
                0x0800bf84                Cgb3vol
                0x0800bdb0                ScaleTable
                0x0800bfc8                xcmd_tbl
                0x0800bf94                clock_tbl_rev01
                0x0800beac                CgbScTable
                0x0800bf48                NoiseTable
                0x0800be94                pcmVBtbl_rev
 .rodata        0x0800bff8      0x9b8 ../Sound/out/SoundDat.o
                0x0800bff8                voicegroup000
                0x0800c5d4                mplay_table
                0x0800c5ec                song_table
 .rodata        0x0800c9b0      0x6c8 ../Sound/out/inst01.o
                0x0800c9b0                inst01
 .rodata        0x0800d078     0x1440 ../Sound/out/inst02.o
                0x0800d078                inst02
 .rodata        0x0800e4b8      0x6c8 ../Sound/out/inst03.o
                0x0800e4b8                inst03
 .rodata        0x0800eb80      0x798 ../Sound/out/inst04.o
                0x0800eb80                inst04
 .rodata        0x0800f318      0x1fc ../Sound/out/inst05.o
                0x0800f318                inst05
 .rodata        0x0800f514      0x288 ../Sound/out/inst06.o
                0x0800f514                inst06
 .rodata        0x0800f79c      0x974 ../Sound/out/inst07.o
                0x0800f79c                inst07
 .rodata        0x08010110     0x1440 ../Sound/out/inst08.o
                0x08010110                inst08
 .rodata        0x08011550      0x28c ../Sound/out/inst09.o
                0x08011550                inst09
 .rodata        0x080117dc      0x370 ../Sound/out/inst0a.o
                0x080117dc                inst0a
 .rodata        0x08011b4c      0x3dc ../Sound/out/inst0b.o
                0x08011b4c                inst0b
 .rodata        0x08011f28      0x6a8 ../Sound/out/inst0c.o
                0x08011f28                inst0c
 .rodata        0x080125d0      0x748 ../Sound/out/inst0d.o
                0x080125d0                inst0d
 .rodata        0x08012d18      0x4cc ../Sound/out/inst0e.o
                0x08012d18                inst0e
 .rodata        0x080131e4      0x560 ../Sound/out/inst0f.o
                0x080131e4                inst0f
 .rodata        0x08013744      0x1f4 ../Sound/out/inst10.o
                0x08013744                inst10
 .rodata        0x08013938      0x4f4 ../Sound/out/inst11.o
                0x08013938                inst11
 .rodata        0x08013e2c      0x470 ../Sound/out/inst12.o
                0x08013e2c                inst12
 .rodata        0x0801429c      0x528 ../Sound/out/inst13.o
                0x0801429c                inst13
 .rodata        0x080147c4      0x734 ../Sound/out/inst14.o
                0x080147c4                inst14
 .rodata        0x08014ef8      0x92c ../Sound/out/inst15.o
                0x08014ef8                inst15
 .rodata        0x08015824     0x1464 ../Sound/out/inst16.o
                0x08015824                inst16
 .rodata        0x08016c88      0x3cc ../Sound/out/inst17.o
                0x08016c88                inst17
 .rodata        0x08017054      0x430 ../Sound/out/inst18.o
                0x08017054                inst18
 .rodata        0x08017484      0x19c ../Sound/out/inst19.o
                0x08017484                inst19
 .rodata        0x08017620      0x28c ../Sound/out/inst1a.o
                0x08017620                inst1a
 .rodata        0x080178ac      0x350 ../Sound/out/inst1b.o
                0x080178ac                inst1b
 .rodata        0x08017bfc      0x334 ../Sound/out/inst1c.o
                0x08017bfc                inst1c
 .rodata        0x08017f30      0x470 ../Sound/out/inst1d.o
                0x08017f30                inst1d
 .rodata        0x080183a0      0x4f0 ../Sound/out/inst1e.o
                0x080183a0                inst1e
 .rodata        0x08018890      0x4e8 ../Sound/out/inst1f.o
                0x08018890                inst1f
 .rodata        0x08018d78      0x28c ../Sound/out/inst20.o
                0x08018d78                inst20
 .rodata        0x08019004      0x208 ../Sound/out/inst21.o
                0x08019004                inst21
 .rodata        0x0801920c      0x5ec ../Sound/out/inst22.o
                0x0801920c                inst22
 .rodata        0x080197f8      0x534 ../Sound/out/inst23.o
                0x080197f8                inst23
 .rodata        0x08019d2c      0x28c ../Sound/out/inst24.o
                0x08019d2c                inst24
 .rodata        0x08019fb8     0x1470 ../Sound/out/inst25.o
                0x08019fb8                inst25
 .rodata        0x0801b428      0x610 ../Sound/out/inst26.o
                0x0801b428                inst26
 .rodata        0x0801ba38      0x45c ../Sound/out/inst27.o
                0x0801ba38                inst27
 .rodata        0x0801be94     0x146c ../Sound/out/inst28.o
                0x0801be94                inst28
 .rodata        0x0801d300     0x1468 ../Sound/out/inst29.o
                0x0801d300                inst29
 .rodata        0x0801e768      0x320 ../Sound/out/inst2a.o
                0x0801e768                inst2a
 .rodata        0x0801ea88      0x91c ../Sound/out/inst2b.o
                0x0801ea88                inst2b
 .rodata        0x0801f3a4     0x1470 ../Sound/out/inst2c.o
                0x0801f3a4                inst2c
 .rodata        0x08020814      0x3fc ../Sound/out/inst2d.o
                0x08020814                inst2d
 .rodata        0x08020c10     0x1464 ../Sound/out/inst2e.o
                0x08020c10                inst2e
 .rodata        0x08022074      0x5b0 ../Sound/out/inst2f.o
                0x08022074                inst2f
 .rodata        0x08022624      0xa04 ../Sound/out/inst30.o
                0x08022624                inst30
 .rodata        0x08023028      0x624 ../Sound/out/inst31.o
                0x08023028                inst31
 .rodata        0x0802364c      0x6d8 ../Sound/out/inst32.o
                0x0802364c                inst32
 .rodata        0x08023d24      0x43c ../Sound/out/inst33.o
                0x08023d24                inst33
 .rodata        0x08024160      0x5f0 ../Sound/out/inst34.o
                0x08024160                inst34
 .rodata        0x08024750      0x5c4 ../Sound/out/inst35.o
                0x08024750                inst35
 .rodata        0x08024d14      0x650 ../Sound/out/inst36.o
                0x08024d14                inst36
 .rodata        0x08025364      0x404 ../Sound/out/inst37.o
                0x08025364                inst37
 .rodata        0x08025768      0x460 ../Sound/out/inst38.o
                0x08025768                inst38
 .rodata        0x08025bc8      0x3c4 ../Sound/out/inst39.o
                0x08025bc8                inst39
 .rodata        0x08025f8c      0x3fc ../Sound/out/inst3a.o
                0x08025f8c                inst3a
 .rodata        0x08026388      0x644 ../Sound/out/inst3b.o
                0x08026388                inst3b
 .rodata        0x080269cc     0x145c ../Sound/out/inst3c.o
                0x080269cc                inst3c
 .rodata        0x08027e28      0x4c8 ../Sound/out/inst3d.o
                0x08027e28                inst3d
 .rodata        0x080282f0      0x20c ../Sound/out/inst3e.o
                0x080282f0                inst3e
 .rodata        0x080284fc      0x540 ../Sound/out/inst3f.o
                0x080284fc                inst3f
 .rodata        0x08028a3c      0x7e4 ../Sound/out/inst40.o
                0x08028a3c                inst40
 .rodata        0x08029220      0x230 ../Sound/out/inst41.o
                0x08029220                inst41
 .rodata        0x08029450      0xab4 ../Sound/out/inst42.o
                0x08029450                inst42
 .rodata        0x08029f04     0x19d8 ../Sound/out/inst43.o
                0x08029f04                inst43
 .rodata        0x0802b8dc      0x714 ../Sound/out/inst44.o
                0x0802b8dc                inst44
 .rodata        0x0802bff0     0x183c ../Sound/out/inst45.o
                0x0802bff0                inst45
 .rodata        0x0802d82c     0x15f0 ../Sound/out/inst46.o
                0x0802d82c                inst46
 .rodata        0x0802ee1c      0x370 ../Sound/out/inst47.o
                0x0802ee1c                inst47
 .rodata        0x0802f18c      0x528 ../Sound/out/inst48.o
                0x0802f18c                inst48
 .rodata        0x0802f6b4      0x4e0 ../Sound/out/inst49.o
                0x0802f6b4                inst49
 .rodata        0x0802fb94      0x5e4 ../Sound/out/inst4a.o
                0x0802fb94                inst4a
 .rodata        0x08030178     0x154c ../Sound/out/inst4b.o
                0x08030178                inst4b
 .rodata        0x080316c4     0x145c ../Sound/out/inst4c.o
                0x080316c4                inst4c
 .rodata        0x08032b20      0x3f4 ../Sound/out/inst4d.o
                0x08032b20                inst4d
 .rodata        0x08032f14      0x838 ../Sound/out/inst4e.o
                0x08032f14                inst4e
 .rodata        0x0803374c      0x70c ../Sound/out/inst4f.o
                0x0803374c                inst4f
 .rodata        0x08033e58      0x378 ../Sound/out/inst50.o
                0x08033e58                inst50
 .rodata        0x080341d0      0xd58 ../Sound/out/inst51.o
                0x080341d0                inst51
 .rodata        0x08034f28      0x64c ../Sound/out/inst52.o
                0x08034f28                inst52
 .rodata        0x08035574      0xc7c ../Sound/out/inst53.o
                0x08035574                inst53
 .rodata        0x080361f0     0x1070 ../Sound/out/inst54.o
                0x080361f0                inst54
 .rodata        0x08037260      0x210 ../Sound/out/inst55.o
                0x08037260                inst55
 .rodata        0x08037470      0x3e0 ../Sound/out/inst56.o
                0x08037470                inst56
 .rodata        0x08037850      0x510 ../Sound/out/inst57.o
                0x08037850                inst57
 .rodata        0x08037d60      0xab4 ../Sound/out/inst58.o
                0x08037d60                inst58
 .rodata        0x08038814      0x98c ../Sound/out/inst59.o
                0x08038814                inst59
 .rodata        0x080391a0      0x380 ../Sound/out/inst5a.o
                0x080391a0                inst5a
 .rodata        0x08039520     0x156c ../Sound/out/inst5b.o
                0x08039520                inst5b
 .rodata        0x0803aa8c     0x1480 ../Sound/out/inst5c.o
                0x0803aa8c                inst5c
 .rodata        0x0803bf0c      0x4dc ../Sound/out/inst5d.o
                0x0803bf0c                inst5d
 .rodata        0x0803c3e8      0x28c ../Sound/out/inst5e.o
                0x0803c3e8                inst5e
 .rodata        0x0803c674      0x250 ../Sound/out/inst5f.o
                0x0803c674                inst5f
 .rodata        0x0803c8c4      0x28c ../Sound/out/inst60.o
                0x0803c8c4                inst60
 .rodata        0x0803cb50      0x46c ../Sound/out/inst61.o
                0x0803cb50                inst61
 .rodata        0x0803cfbc      0x7a0 ../Sound/out/inst62.o
                0x0803cfbc                inst62
 .rodata        0x0803d75c      0x308 ../Sound/out/inst63.o
                0x0803d75c                inst63
 .rodata        0x0803da64      0x470 ../Sound/out/inst64.o
                0x0803da64                inst64
 .rodata        0x0803ded4      0xb88 ../Sound/out/inst65.o
                0x0803ded4                inst65
 .rodata        0x0803ea5c      0x654 ../Sound/out/inst66.o
                0x0803ea5c                inst66
 .rodata        0x0803f0b0      0x400 ../Sound/out/inst67.o
                0x0803f0b0                inst67
 .rodata        0x0803f4b0     0x1a0c ../Sound/out/snd_anmf.o
                0x0803f4b0                snd_anmf
 .rodata        0x08040ebc      0xd58 ../Sound/out/snd_bblw.o
                0x08040ebc                snd_bblw
 .rodata        0x08041c14      0x7e4 ../Sound/out/snd_bbou.o
                0x08041c14                snd_bbou
 .rodata        0x080423f8     0x23e8 ../Sound/out/snd_blam.o
                0x080423f8                snd_blam
 .rodata        0x080447e0      0x8e4 ../Sound/out/snd_boun.o
                0x080447e0                snd_boun
 .rodata        0x080450c4     0x1224 ../Sound/out/snd_corl.o
                0x080450c4                snd_corl
 .rodata        0x080462e8      0xcac ../Sound/out/snd_eat.o
                0x080462e8                snd_eat
 .rodata        0x08046f94      0xba0 ../Sound/out/snd_elec.o
                0x08046f94                snd_elec
 .rodata        0x08047b34      0x914 ../Sound/out/snd_impc.o
                0x08047b34                snd_impc
 .rodata        0x08048448      0xa1c ../Sound/out/snd_jfsh.o
                0x08048448                snd_jfsh
 .rodata        0x08048e64      0x6c8 ../Sound/out/snd_jump.o
                0x08048e64                snd_jump
 .rodata        0x0804952c      0x554 ../Sound/out/snd_krte.o
                0x0804952c                snd_krte
 .rodata        0x08049a80     0x139c ../Sound/out/snd_move.o
                0x08049a80                snd_move
 .rodata        0x0804ae1c      0x654 ../Sound/out/snd_net.o
                0x0804ae1c                snd_net
 .rodata        0x0804b470      0xe74 ../Sound/out/snd_satk.o
                0x0804b470                snd_satk
 .rodata        0x0804c2e4      0xcdc ../Sound/out/snd_saw.o
                0x0804c2e4                snd_saw
 .rodata        0x0804cfc0      0xd30 ../Sound/out/snd_splt.o
                0x0804cfc0                snd_splt
 .rodata        0x0804dcf0      0x654 ../Sound/out/snd_squk.o
                0x0804dcf0                snd_squk
 .rodata        0x0804e344     0x118c ../Sound/out/snd_tndr.o
                0x0804e344                snd_tndr
 .rodata        0x0804f4d0     0x1c08 ../Sound/out/snd_watr.o
                0x0804f4d0                snd_watr
 .rodata        0x080510d8     0x15ac ../Sound/out/snd_whsh.o
                0x080510d8                snd_whsh
 .rodata        0x08052684     0x15a4 ../Sound/out/snd_zlau.o
                0x08052684                snd_zlau
 .rodata        0x08053c28     0x16d0 ../Sound/out/ch1_1_2.o
                0x080552e0                ch1_1_2
 .rodata        0x080552f8     0x1d38 ../Sound/out/ch1_3.o
                0x08057018                ch1_3
 .rodata        0x08057030      0xc5c ../Sound/out/ch1_4.o
                0x08057c74                ch1_4
 .rodata        0x08057c8c      0x784 ../Sound/out/ch1_b.o
                0x080583f8                ch1_b
 .rodata        0x08058410     0x10cc ../Sound/out/ch2_1_3.o
                0x080594c4                ch2_1_3
 .rodata        0x080594dc     0x1310 ../Sound/out/ch2_2.o
                0x0805a7d4                ch2_2
 .rodata        0x0805a7ec      0xdb0 ../Sound/out/ch2_4.o
                0x0805b584                ch2_4
 .rodata        0x0805b59c      0x124 ../Sound/out/ch2_b.o
                0x0805b6a8                ch2_b
 .rodata        0x0805b6c0      0xb2c ../Sound/out/ch3_1.o
                0x0805c1d4                ch3_1
 .rodata        0x0805c1ec     0x1538 ../Sound/out/ch3_2_3.o
                0x0805d70c                ch3_2_3
 .rodata        0x0805d724      0xde0 ../Sound/out/ch3_4.o
                0x0805e4ec                ch3_4
 .rodata        0x0805e504      0x19c ../Sound/out/ch3_b1.o
                0x0805e688                ch3_b1
 .rodata        0x0805e6a0      0x45c ../Sound/out/ch3_b2.o
                0x0805eae4                ch3_b2
 .rodata        0x0805eafc     0x165c ../Sound/out/ch4_1.o
                0x08060140                ch4_1
 .rodata        0x08060158     0x1bac ../Sound/out/ch4_2_4.o
                0x08061cec                ch4_2_4
 .rodata        0x08061d04      0xdb8 ../Sound/out/ch4_3.o
                0x08062aa4                ch4_3
 .rodata        0x08062abc      0x474 ../Sound/out/ch4_b.o
                0x08062f18                ch4_b
 .rodata        0x08062f30      0xec0 ../Sound/out/ch5_1_3.o
                0x08063dd8                ch5_1_3
 .rodata        0x08063df0      0xd48 ../Sound/out/ch5_2.o
                0x08064b20                ch5_2
 .rodata        0x08064b38     0x18ac ../Sound/out/ch5_4.o
                0x080663cc                ch5_4
 .rodata        0x080663e4      0x2dc ../Sound/out/ch5_b.o
                0x080666a8                ch5_b
 .rodata        0x080666c0      0x848 ../Sound/out/ch6_b_t.o
                0x08066ef0                ch6_b_t
 .rodata        0x08066f08      0xb1c ../Sound/out/ch6_g.o
                0x08067a0c                ch6_g
 .rodata        0x08067a24      0xd84 ../Sound/out/ch6_r_s.o
                0x08068790                ch6_r_s
 .rodata        0x080687a8      0x508 ../Sound/out/ch6_top.o
                0x08068c98                ch6_top
 .rodata        0x08068cb0      0x1dc ../Sound/out/gameover.o
                0x08068e74                gameover
 .rodata        0x08068e8c      0x2f4 ../Sound/out/options.o
                0x08069168                options
 .rodata        0x08069180      0x9a8 ../Sound/out/titlemusic.o
                0x08069b10                titlemusic
 .rodata        0x08069b28       0x1c ../Sound/out/zfx00.o
                0x08069b38                zfx00
 .rodata        0x08069b44       0x1c ../Sound/out/zfx01.o
                0x08069b54                zfx01
 .rodata        0x08069b60       0x1c ../Sound/out/zfx02.o
                0x08069b70                zfx02
 .rodata        0x08069b7c       0x1c ../Sound/out/zfx03.o
                0x08069b8c                zfx03
 .rodata        0x08069b98       0x1c ../Sound/out/zfx04.o
                0x08069ba8                zfx04
 .rodata        0x08069bb4       0x1c ../Sound/out/zfx05.o
                0x08069bc4                zfx05
 .rodata        0x08069bd0       0x20 ../Sound/out/zfx06.o
                0x08069be4                zfx06
 .rodata        0x08069bf0       0x1c ../Sound/out/zfx07.o
                0x08069c00                zfx07
 .rodata        0x08069c0c       0x28 ../Sound/out/zfx08.o
                0x08069c28                zfx08
 .rodata        0x08069c34       0x34 ../Sound/out/zfx09.o
                0x08069c5c                zfx09
 .rodata        0x08069c68       0x28 ../Sound/out/zfx10.o
                0x08069c84                zfx10
 .rodata        0x08069c90       0x1c ../Sound/out/zfx11.o
                0x08069ca0                zfx11
 .rodata        0x08069cac       0x1c ../Sound/out/zfx12.o
                0x08069cbc                zfx12
 .rodata        0x08069cc8       0x1c ../Sound/out/zfx13.o
                0x08069cd8                zfx13
 .rodata        0x08069ce4       0x1c ../Sound/out/zfx14.o
                0x08069cf4                zfx14
 .rodata        0x08069d00       0x1c ../Sound/out/zfx15.o
                0x08069d10                zfx15
 .rodata        0x08069d1c       0x1c ../Sound/out/zfx16.o
                0x08069d2c                zfx16
 .rodata        0x08069d38       0x40 ../Sound/out/zfx17.o
                0x08069d6c                zfx17
 .rodata        0x08069d78       0x1c ../Sound/out/zfx18.o
                0x08069d88                zfx18
 .rodata        0x08069d94       0x20 ../Sound/out/zfx19.o
                0x08069da8                zfx19
 .rodata        0x08069db4       0x2c ../Sound/out/zfx20.o
                0x08069dd4                zfx20
 .rodata        0x08069de0       0x28 ../Sound/out/zfx21.o
                0x08069dfc                zfx21
 .rodata        0x08069e08       0x38 ../Sound/out/zfx22.o
                0x08069e34                zfx22
 .rodata        0x08069e40       0x1c ../Sound/out/zfx23.o
                0x08069e50                zfx23
 .rodata        0x08069e5c       0x38 ../Sound/out/zfx24.o
                0x08069e88                zfx24
 .rodata        0x08069e94       0x24 ../Sound/out/zfx25.o
                0x08069eac                zfx25
 .rodata        0x08069eb8       0x1c ../Sound/out/zfx26.o
                0x08069ec8                zfx26
 .rodata        0x08069ed4       0x28 ../Sound/out/zfx27.o
                0x08069ef0                zfx27
 .rodata        0x08069efc       0x20 ../Sound/out/zfx28.o
                0x08069f10                zfx28
 .rodata        0x08069f1c       0x1c ../Sound/out/zfx29.o
                0x08069f2c                zfx29
 .rodata        0x08069f38       0x1c ../Sound/out/zfx30.o
                0x08069f48                zfx30
 .rodata        0x08069f54       0x38 ../Sound/out/zfx31.o
                0x08069f80                zfx31
 .rodata        0x08069f8c       0x20 ../Sound/out/zfx32.o
                0x08069fa0                zfx32
 .rodata        0x08069fac       0x34 ../Sound/out/zfx33.o
                0x08069fd4                zfx33
 .rodata        0x08069fe0       0x38 ../Sound/out/zfx34.o
                0x0806a00c                zfx34
 .rodata        0x0806a018       0x28 ../Sound/out/zfx35.o
                0x0806a034                zfx35
 .rodata        0x0806a040       0x1c ../Sound/out/zfx36.o
                0x0806a050                zfx36
 .rodata        0x0806a05c       0x20 ../Sound/out/zfx37.o
                0x0806a070                zfx37
 .rodata        0x0806a07c       0x30 ../Sound/out/zfx38.o
                0x0806a0a0                zfx38
 .rodata        0x0806a0ac       0x30 ../Sound/out/zfx39.o
                0x0806a0d0                zfx39
 .rodata        0x0806a0dc       0x28 ../Sound/out/zfx40.o
                0x0806a0f8                zfx40
 .rodata        0x0806a104       0x24 ../Sound/out/zfx41.o
                0x0806a11c                zfx41
 .rodata        0x0806a128       0x28 ../Sound/out/zfx42.o
                0x0806a144                zfx42
 .rodata        0x0806a150       0x20 ../Sound/out/zfx43.o
                0x0806a164                zfx43
 .rodata        0x0806a170       0x20 ../Sound/out/zfx44.o
                0x0806a184                zfx44
 .rodata        0x0806a190       0x20 ../Sound/out/zfx45.o
                0x0806a1a4                zfx45
 .rodata        0x0806a1b0       0x30 ../Sound/out/zfx46.o
                0x0806a1d4                zfx46
 .rodata        0x0806a1e0       0x1c ../Sound/out/zfx47.o
                0x0806a1f0                zfx47
 .rodata        0x0806a1fc       0x1c ../Sound/out/zfx48.o
                0x0806a20c                zfx48
 .rodata        0x0806a218       0x30 ../Sound/out/zfx49.o
                0x0806a23c                zfx49
 .rodata        0x0806a248       0x20 ../Sound/out/zfx50.o
                0x0806a25c                zfx50
 .rodata        0x0806a268       0x28 ../Sound/out/zfx51.o
                0x0806a284                zfx51
 .rodata        0x0806a290       0x1c ../Sound/out/zfx52.o
                0x0806a2a0                zfx52
 .rodata        0x0806a2ac       0x1c ../Sound/out/zfx53.o
                0x0806a2bc                zfx53
 .rodata        0x0806a2c8       0x44 ../Sound/out/zfx54.o
                0x0806a300                zfx54
 .rodata        0x0806a30c       0x20 ../Sound/out/zfx55.o
                0x0806a320                zfx55
 .rodata        0x0806a32c       0x58 ../Sound/out/zfx56.o
                0x0806a378                zfx56
 .rodata        0x0806a384       0x3c ../Sound/out/zfx57.o
                0x0806a3b4                zfx57
 .rodata        0x0806a3c0       0x34 ../Sound/out/zfx58.o
                0x0806a3e8                zfx58
 .rodata        0x0806a3f4       0x20 ../Sound/out/zfx59.o
                0x0806a408                zfx59
 .rodata        0x0806a414       0x20 ../Sound/out/zfx60.o
                0x0806a428                zfx60
 .rodata        0x0806a434       0x2c ../Sound/out/zfx61.o
                0x0806a454                zfx61
 .rodata        0x0806a460       0x20 ../Sound/out/zfx62.o
                0x0806a474                zfx62
 .rodata        0x0806a480       0x2c ../Sound/out/zfx63.o
                0x0806a4a0                zfx63
 .rodata        0x0806a4ac       0x34 ../Sound/out/zfx64.o
                0x0806a4d4                zfx64
 .rodata        0x0806a4e0       0x30 ../Sound/out/zfx65.o
                0x0806a504                zfx65
 .rodata        0x0806a510       0x1c ../Sound/out/zfx66.o
                0x0806a520                zfx66
 .rodata        0x0806a52c       0x20 ../Sound/out/zfx67.o
                0x0806a540                zfx67
 .rodata        0x0806a54c       0x1c ../Sound/out/zfx68.o
                0x0806a55c                zfx68
 .rodata        0x0806a568       0x1c ../Sound/out/zfx69.o
                0x0806a578                zfx69
 .rodata        0x0806a584       0x1c ../Sound/out/zfx70.o
                0x0806a594                zfx70
 .rodata        0x0806a5a0       0x20 ../Sound/out/zfx71.o
                0x0806a5b4                zfx71
 .rodata        0x0806a5c0       0x1c ../Sound/out/zfx72.o
                0x0806a5d0                zfx72
 .rodata        0x0806a5dc       0x1c ../Sound/out/zfx73.o
                0x0806a5ec                zfx73
 .rodata        0x0806a5f8       0x20 ../Sound/out/zfx74.o
                0x0806a60c                zfx74
 .rodata        0x0806a618       0x20 ../Sound/out/zfx75.o
                0x0806a62c                zfx75
 .rodata        0x0806a638       0x28 ../Sound/out/zfx76.o
                0x0806a654                zfx76
 .rodata        0x0806a660       0x44 ../Sound/out/zfx77.o
                0x0806a698                zfx77
 .rodata        0x0806a6a4       0x1c ../Sound/out/zfx78.o
                0x0806a6b4                zfx78
 .rodata        0x0806a6c0       0x20 ../Sound/out/zfx79.o
                0x0806a6d4                zfx79
 .rodata        0x0806a6e0       0x1c ../Sound/out/zfx80.o
                0x0806a6f0                zfx80
 .rodata        0x0806a6fc       0x1c ../Sound/out/zfx81.o
                0x0806a70c                zfx81
 .rodata        0x0806a718       0x1c ../Sound/out/zfx82.o
                0x0806a728                zfx82
 .rodata        0x0806a734       0x20 ../Sound/out/zfx83.o
                0x0806a748                zfx83
 .rodata        0x0806a754       0x24 ../Sound/out/zfx84.o
                0x0806a76c                zfx84
 .rodata        0x0806a778       0x20 ../Sound/out/zfx85.o
                0x0806a78c                zfx85
 .rodata        0x0806a798       0x34 ../Sound/out/zfx86.o
                0x0806a7c0                zfx86
 .rodata        0x0806a7cc       0x1c ../Sound/out/zfx87.o
                0x0806a7dc                zfx87
 .rodata        0x0806a7e8       0x24 ../Sound/out/zfx88.o
                0x0806a800                zfx88
 .rodata        0x0806a80c       0x20 ../Sound/out/zfx89.o
                0x0806a820                zfx89
 .rodata        0x0806a82c       0x20 ../Sound/out/zfx90.o
                0x0806a840                zfx90
 .rodata        0x0806a84c       0x24 ../Sound/out/zfx91.o
                0x0806a864                zfx91
 .rodata        0x0806a870     0x2170 ../data/Titles//libTitlesGFX.a(Start_Copy.o)
                0x0806aa70                Start_Copy_Character
                0x0806c530                Start_Copy_Map
                0x0806a870                Start_Copy_Palette
 .rodata        0x0806c9e0     0x19b0 ../data/Titles//libTitlesGFX.a(Start_THQ.o)
                0x0806c9e0                Start_THQ_Palette
                0x0806dee0                Start_THQ_Map
                0x0806cbe0                Start_THQ_Character
 .rodata        0x0806e390     0x1a70 ../data/Titles//libTitlesGFX.a(Start_Nick.o)
                0x0806e390                Start_Nick_Palette
                0x0806f950                Start_Nick_Map
                0x0806e590                Start_Nick_Character
 .rodata        0x0806fe00     0x1170 ../data/Titles//libTitlesGFX.a(Start_Climax.o)
                0x08070ac0                Start_Climax_Map
                0x0806fe00                Start_Climax_Palette
                0x08070000                Start_Climax_Character
 .rodata        0x08070f70     0x1800 ../data/Titles//libTitlesGFX.a(libFontGame.o)
                0x08070f70                libFontGame_Char
 .rodata        0x08072770     0x1800 ../data/Titles//libTitlesGFX.a(libFontMenu.o)
                0x08072770                libFontMenu_Char
 .rodata        0x08073f70     0x12c0 ../data/Titles//libTitlesGFX.a(menuback.o)
                0x08074a30                menuback_Map
                0x08074170                menuback_Character
                0x08073f70                menuback_Palette
 .rodata        0x08075230     0x2b00 ../data/Titles//libTitlesGFX.a(HubMap.o)
                0x08075430                HubMap_Character
                0x08075230                HubMap_Palette
                0x08076d30                HubMap_Map
 .rodata        0x08077d30     0x1a30 ../data/Titles//libTitlesGFX.a(menul2.o)
                0x08077d30                menul2_Palette
                0x080792b0                menul2_Map
                0x08077f30                menul2_Character
 .rodata        0x08079760     0x1200 ../data/Titles//libTitlesGFX.a(menuback2.o)
                0x08079760                menuback2_Palette
                0x0807a160                menuback2_Map
                0x08079960                menuback2_Character
 .rodata        0x0807a960     0x1b80 ../data/Titles//libTitlesGFX.a(menuback3.o)
                0x0807bce0                menuback3_Map
                0x0807a960                menuback3_Palette
                0x0807ab60                menuback3_Character
 .rodata        0x0807c4e0     0x1a40 ../data/Titles//libTitlesGFX.a(menuback4.o)
                0x0807c6e0                menuback4_Character
                0x0807d720                menuback4_Map
                0x0807c4e0                menuback4_Palette
 .rodata        0x0807df20     0x1cc0 ../data/Titles//libTitlesGFX.a(menuback5.o)
                0x0807df20                menuback5_Palette
                0x0807e120                menuback5_Character
                0x0807f3e0                menuback5_Map
 .rodata        0x0807fbe0     0x1c40 ../data/Titles//libTitlesGFX.a(menuback6.o)
                0x0807fbe0                menuback6_Palette
                0x0807fde0                menuback6_Character
                0x08081020                menuback6_Map
 .rodata        0x08081820     0x10e0 ../data/Titles//libTitlesGFX.a(icons.o)
                0x08081820                icons_Char
 .rodata        0x08082900      0x13c ../data/Sprites/SpongeBob//libSpongeBob_Sprs.a(buttbounceend0001_RL.o)
                0x08082900                buttbounceend0001_Char_RL
 .rodata        0x08082a3c      0x178 ../data/Sprites/SpongeBob//libSpongeBob_Sprs.a(buttbounceend0003_RL.o)
                0x08082a3c                buttbounceend0003_Char_RL
 .rodata        0x08082bb4      0x13c ../data/Sprites/SpongeBob//libSpongeBob_Sprs.a(buttbounceend0005_RL.o)
                0x08082bb4                buttbounceend0005_Char_RL
 .rodata        0x08082cf0      0x1c8 ../data/Sprites/SpongeBob//libSpongeBob_Sprs.a(buttbounceend0007_RL.o)
                0x08082cf0                buttbounceend0007_Char_RL
 .rodata        0x08082eb8      0x1c8 ../data/Sprites/SpongeBob//libSpongeBob_Sprs.a(buttbouncestart0001_RL.o)
                0x08082eb8                buttbouncestart0001_Char_RL
 .rodata        0x08083080      0x1a8 ../data/Sprites/SpongeBob//libSpongeBob_Sprs.a(buttbouncestart0003_RL.o)
                0x08083080                buttbouncestart0003_Char_RL
 .rodata        0x08083228      0x188 ../data/Sprites/SpongeBob//libSpongeBob_Sprs.a(buttbouncestart0005_RL.o)
                0x08083228                buttbouncestart0005_Char_RL
 .rodata        0x080833b0      0x154 ../data/Sprites/SpongeBob//libSpongeBob_Sprs.a(buttbouncestart0007_RL.o)
                0x080833b0                buttbouncestart0007_Char_RL
 .rodata        0x08083504      0x1c8 ../data/Sprites/SpongeBob//libSpongeBob_Sprs.a(deathbackwards0001_RL.o)
                0x08083504                deathbackwards0001_Char_RL
 .rodata        0x080836cc      0x16c ../data/Sprites/SpongeBob//libSpongeBob_Sprs.a(deathbackwards0003_RL.o)
                0x080836cc                deathbackwards0003_Char_RL
 .rodata        0x08083838      0x174 ../data/Sprites/SpongeBob//libSpongeBob_Sprs.a(deathbackwards0005_RL.o)
                0x08083838                deathbackwards0005_Char_RL
 .rodata        0x080839ac       0xe0 ../data/Sprites/SpongeBob//libSpongeBob_Sprs.a(deathbackwards0007_RL.o)
                0x080839ac                deathbackwards0007_Char_RL
 .rodata        0x08083a8c       0xd8 ../data/Sprites/SpongeBob//libSpongeBob_Sprs.a(deathbackwards0009_RL.o)
                0x08083a8c                deathbackwards0009_Char_RL
 .rodata        0x08083b64       0xbc ../data/Sprites/SpongeBob//libSpongeBob_Sprs.a(deathbackwards0011_RL.o)
                0x08083b64                deathbackwards0011_Char_RL
 .rodata        0x08083c20       0xec ../data/Sprites/SpongeBob//libSpongeBob_Sprs.a(deathbackwards0013_RL.o)
                0x08083c20                deathbackwards0013_Char_RL
 .rodata        0x08083d0c       0xf0 ../data/Sprites/SpongeBob//libSpongeBob_Sprs.a(deathbackwards0015_RL.o)
                0x08083d0c                deathbackwards0015_Char_RL
 .rodata        0x08083dfc      0x1c4 ../data/Sprites/SpongeBob//libSpongeBob_Sprs.a(deathdry0001_RL.o)
                0x08083dfc                deathdry0001_Char_RL
 .rodata        0x08083fc0      0x1c0 ../data/Sprites/SpongeBob//libSpongeBob_Sprs.a(deathdry0003_RL.o)
                0x08083fc0                deathdry0003_Char_RL
 .rodata        0x08084180      0x1a8 ../data/Sprites/SpongeBob//libSpongeBob_Sprs.a(deathdry0005_RL.o)
                0x08084180                deathdry0005_Char_RL
 .rodata        0x08084328      0x1b8 ../data/Sprites/SpongeBob//libSpongeBob_Sprs.a(deathdry0007_RL.o)
                0x08084328                deathdry0007_Char_RL
 .rodata        0x080844e0      0x18c ../data/Sprites/SpongeBob//libSpongeBob_Sprs.a(deathdry0009_RL.o)
                0x080844e0                deathdry0009_Char_RL
 .rodata        0x0808466c      0x1d4 ../data/Sprites/SpongeBob//libSpongeBob_Sprs.a(deathdry0011_RL.o)
                0x0808466c                deathdry0011_Char_RL
 .rodata        0x08084840      0x1b8 ../data/Sprites/SpongeBob//libSpongeBob_Sprs.a(deathdry0013_RL.o)
                0x08084840                deathdry0013_Char_RL
 .rodata        0x080849f8      0x168 ../data/Sprites/SpongeBob//libSpongeBob_Sprs.a(deathdry0015_RL.o)
                0x080849f8                deathdry0015_Char_RL
 .rodata        0x08084b60      0x180 ../data/Sprites/SpongeBob//libSpongeBob_Sprs.a(deathforwards0001_RL.o)
                0x08084b60                deathforwards0001_Char_RL
 .rodata        0x08084ce0      0x170 ../data/Sprites/SpongeBob//libSpongeBob_Sprs.a(deathforwards0003_RL.o)
                0x08084ce0                deathforwards0003_Char_RL
 .rodata        0x08084e50      0x170 ../data/Sprites/SpongeBob//libSpongeBob_Sprs.a(deathforwards0005_RL.o)
                0x08084e50                deathforwards0005_Char_RL
 .rodata        0x08084fc0      0x15c ../data/Sprites/SpongeBob//libSpongeBob_Sprs.a(deathforwards0007_RL.o)
                0x08084fc0                deathforwards0007_Char_RL
 .rodata        0x0808511c      0x16c ../data/Sprites/SpongeBob//libSpongeBob_Sprs.a(deathforwards0009_RL.o)
                0x0808511c                deathforwards0009_Char_RL
 .rodata        0x08085288      0x164 ../data/Sprites/SpongeBob//libSpongeBob_Sprs.a(deathforwards0011_RL.o)
                0x08085288                deathforwards0011_Char_RL
 .rodata        0x080853ec      0x160 ../data/Sprites/SpongeBob//libSpongeBob_Sprs.a(deathforwards0013_RL.o)
                0x080853ec                deathforwards0013_Char_RL
 .rodata        0x0808554c       0xc0 ../data/Sprites/SpongeBob//libSpongeBob_Sprs.a(deathforwards0015_RL.o)
                0x0808554c                deathforwards0015_Char_RL
 .rodata        0x0808560c      0x1c8 ../data/Sprites/SpongeBob//libSpongeBob_Sprs.a(deathspin0001_RL.o)
                0x0808560c                deathspin0001_Char_RL
 .rodata        0x080857d4      0x17c ../data/Sprites/SpongeBob//libSpongeBob_Sprs.a(deathspin0003_RL.o)
                0x080857d4                deathspin0003_Char_RL
 .rodata        0x08085950      0x180 ../data/Sprites/SpongeBob//libSpongeBob_Sprs.a(deathspin0005_RL.o)
                0x08085950                deathspin0005_Char_RL
 .rodata        0x08085ad0      0x1a4 ../data/Sprites/SpongeBob//libSpongeBob_Sprs.a(deathspin0007_RL.o)
                0x08085ad0                deathspin0007_Char_RL
 .rodata        0x08085c74      0x1a4 ../data/Sprites/SpongeBob//libSpongeBob_Sprs.a(deathspin0009_RL.o)
                0x08085c74                deathspin0009_Char_RL
 .rodata        0x08085e18      0x11c ../data/Sprites/SpongeBob//libSpongeBob_Sprs.a(deathspin0011_RL.o)
                0x08085e18                deathspin0011_Char_RL
 .rodata        0x08085f34      0x1b0 ../data/Sprites/SpongeBob//libSpongeBob_Sprs.a(deathspin0013_RL.o)
                0x08085f34                deathspin0013_Char_RL
 .rodata        0x080860e4      0x1b0 ../data/Sprites/SpongeBob//libSpongeBob_Sprs.a(deathspin0015_RL.o)
                0x080860e4                deathspin0015_Char_RL
 .rodata        0x08086294      0x1bc ../data/Sprites/SpongeBob//libSpongeBob_Sprs.a(deathsquash0001_RL.o)
                0x08086294                deathsquash0001_Char_RL
 .rodata        0x08086450      0x188 ../data/Sprites/SpongeBob//libSpongeBob_Sprs.a(deathsquash0003_RL.o)
                0x08086450                deathsquash0003_Char_RL
 .rodata        0x080865d8      0x16c ../data/Sprites/SpongeBob//libSpongeBob_Sprs.a(deathsquash0005_RL.o)
                0x080865d8                deathsquash0005_Char_RL
 .rodata        0x08086744      0x150 ../data/Sprites/SpongeBob//libSpongeBob_Sprs.a(deathsquash0007_RL.o)
                0x08086744                deathsquash0007_Char_RL
 .rodata        0x08086894      0x12c ../data/Sprites/SpongeBob//libSpongeBob_Sprs.a(deathsquash0009_RL.o)
                0x08086894                deathsquash0009_Char_RL
 .rodata        0x080869c0       0xec ../data/Sprites/SpongeBob//libSpongeBob_Sprs.a(deathsquash0011_RL.o)
                0x080869c0                deathsquash0011_Char_RL
 .rodata        0x08086aac      0x150 ../data/Sprites/SpongeBob//libSpongeBob_Sprs.a(deathsquash0013_RL.o)
                0x08086aac                deathsquash0013_Char_RL
 .rodata        0x08086bfc       0xcc ../data/Sprites/SpongeBob//libSpongeBob_Sprs.a(deathsquash0015_RL.o)
                0x08086bfc                deathsquash0015_Char_RL
 .rodata        0x08086cc8      0x180 ../data/Sprites/SpongeBob//libSpongeBob_Sprs.a(deathtar0001_RL.o)
                0x08086cc8                deathtar0001_Char_RL
 .rodata        0x08086e48      0x170 ../data/Sprites/SpongeBob//libSpongeBob_Sprs.a(deathtar0003_RL.o)
                0x08086e48                deathtar0003_Char_RL
 .rodata        0x08086fb8      0x170 ../data/Sprites/SpongeBob//libSpongeBob_Sprs.a(deathtar0005_RL.o)
                0x08086fb8                deathtar0005_Char_RL
 .rodata        0x08087128      0x184 ../data/Sprites/SpongeBob//libSpongeBob_Sprs.a(deathtar0007_RL.o)
                0x08087128                deathtar0007_Char_RL
 .rodata        0x080872ac      0x1b4 ../data/Sprites/SpongeBob//libSpongeBob_Sprs.a(deathtarstart0001_RL.o)
                0x080872ac                deathtarstart0001_Char_RL
 .rodata        0x08087460      0x1ac ../data/Sprites/SpongeBob//libSpongeBob_Sprs.a(deathtarstart0003_RL.o)
                0x08087460                deathtarstart0003_Char_RL
 .rodata        0x0808760c      0x194 ../data/Sprites/SpongeBob//libSpongeBob_Sprs.a(deathtarstart0005_RL.o)
                0x0808760c                deathtarstart0005_Char_RL
 .rodata        0x080877a0      0x188 ../data/Sprites/SpongeBob//libSpongeBob_Sprs.a(deathtarstart0007_RL.o)
                0x080877a0                deathtarstart0007_Char_RL
 .rodata        0x08087928      0x194 ../data/Sprites/SpongeBob//libSpongeBob_Sprs.a(electricshock0001_RL.o)
                0x08087928                electricshock0001_Char_RL
 .rodata        0x08087abc      0x18c ../data/Sprites/SpongeBob//libSpongeBob_Sprs.a(electricshock0003_RL.o)
                0x08087abc                electricshock0003_Char_RL
 .rodata        0x08087c48      0x18c ../data/Sprites/SpongeBob//libSpongeBob_Sprs.a(electricshock0005_RL.o)
                0x08087c48                electricshock0005_Char_RL
 .rodata        0x08087dd4      0x18c ../data/Sprites/SpongeBob//libSpongeBob_Sprs.a(electricshock0007_RL.o)
                0x08087dd4                electricshock0007_Char_RL
 .rodata        0x08087f60      0x190 ../data/Sprites/SpongeBob//libSpongeBob_Sprs.a(electricshockend0000_RL.o)
                0x08087f60                electricshockend0000_Char_RL
 .rodata        0x080880f0      0x1d4 ../data/Sprites/SpongeBob//libSpongeBob_Sprs.a(electricshockend0001_RL.o)
                0x080880f0                electricshockend0001_Char_RL
 .rodata        0x080882c4      0x1b4 ../data/Sprites/SpongeBob//libSpongeBob_Sprs.a(electricshockstart0000_RL.o)
                0x080882c4                electricshockstart0000_Char_RL
 .rodata        0x08088478      0x170 ../data/Sprites/SpongeBob//libSpongeBob_Sprs.a(electricshockstart0001_RL.o)
                0x08088478                electricshockstart0001_Char_RL
 .rodata        0x080885e8      0x17c ../data/Sprites/SpongeBob//libSpongeBob_Sprs.a(faceback0001_RL.o)
                0x080885e8                faceback0001_Char_RL
 .rodata        0x08088764      0x174 ../data/Sprites/SpongeBob//libSpongeBob_Sprs.a(faceback0003_RL.o)
                0x08088764                faceback0003_Char_RL
 .rodata        0x080888d8      0x190 ../data/Sprites/SpongeBob//libSpongeBob_Sprs.a(faceback0005_RL.o)
                0x080888d8                faceback0005_Char_RL
 .rodata        0x08088a68      0x1b0 ../data/Sprites/SpongeBob//libSpongeBob_Sprs.a(faceback0007_RL.o)
                0x08088a68                faceback0007_Char_RL
 .rodata        0x08088c18      0x1b4 ../data/Sprites/SpongeBob//libSpongeBob_Sprs.a(facefront0000_RL.o)
                0x08088c18                facefront0000_Char_RL
 .rodata        0x08088dcc      0x184 ../data/Sprites/SpongeBob//libSpongeBob_Sprs.a(facefront0001_RL.o)
                0x08088dcc                facefront0001_Char_RL
 .rodata        0x08088f50       0xec ../data/Sprites/SpongeBob//libSpongeBob_Sprs.a(fall0001_RL.o)
                0x08088f50                fall0001_Char_RL
 .rodata        0x0808903c      0x120 ../data/Sprites/SpongeBob//libSpongeBob_Sprs.a(fall0003_RL.o)
                0x0808903c                fall0003_Char_RL
 .rodata        0x0808915c       0x6c ../data/Sprites/SpongeBob//libSpongeBob_Sprs.a(fall0005_RL.o)
                0x0808915c                fall0005_Char_RL
 .rodata        0x080891c8      0x1e0 ../data/Sprites/SpongeBob//libSpongeBob_Sprs.a(fireend0000_RL.o)
                0x080891c8                fireend0000_Char_RL
 .rodata        0x080893a8      0x1c4 ../data/Sprites/SpongeBob//libSpongeBob_Sprs.a(fireend0001_RL.o)
                0x080893a8                fireend0001_Char_RL
 .rodata        0x0808956c      0x1a8 ../data/Sprites/SpongeBob//libSpongeBob_Sprs.a(firestart0000_RL.o)
                0x0808956c                firestart0000_Char_RL
 .rodata        0x08089714      0x1b4 ../data/Sprites/SpongeBob//libSpongeBob_Sprs.a(firestart0001_RL.o)
                0x08089714                firestart0001_Char_RL
 .rodata        0x080898c8      0x1b8 ../data/Sprites/SpongeBob//libSpongeBob_Sprs.a(firestart0002_RL.o)
                0x080898c8                firestart0002_Char_RL
 .rodata        0x08089a80      0x1cc ../data/Sprites/SpongeBob//libSpongeBob_Sprs.a(firestart0003_RL.o)
                0x08089a80                firestart0003_Char_RL
 .rodata        0x08089c4c       0xe8 ../data/Sprites/SpongeBob//libSpongeBob_Sprs.a(getup0001_RL.o)
                0x08089c4c                getup0001_Char_RL
 .rodata        0x08089d34      0x1a0 ../data/Sprites/SpongeBob//libSpongeBob_Sprs.a(getup0003_RL.o)
                0x08089d34                getup0003_Char_RL
 .rodata        0x08089ed4      0x190 ../data/Sprites/SpongeBob//libSpongeBob_Sprs.a(getup0005_RL.o)
                0x08089ed4                getup0005_Char_RL
 .rodata        0x0808a064      0x1b4 ../data/Sprites/SpongeBob//libSpongeBob_Sprs.a(getup0007_RL.o)
                0x0808a064                getup0007_Char_RL
 .rodata        0x0808a218      0x140 ../data/Sprites/SpongeBob//libSpongeBob_Sprs.a(getuprun0001_RL.o)
                0x0808a218                getuprun0001_Char_RL
 .rodata        0x0808a358      0x180 ../data/Sprites/SpongeBob//libSpongeBob_Sprs.a(getuprun0003_RL.o)
                0x0808a358                getuprun0003_Char_RL
 .rodata        0x0808a4d8      0x180 ../data/Sprites/SpongeBob//libSpongeBob_Sprs.a(getuprun0005_RL.o)
                0x0808a4d8                getuprun0005_Char_RL
 .rodata        0x0808a658      0x180 ../data/Sprites/SpongeBob//libSpongeBob_Sprs.a(getuprun0007_RL.o)
                0x0808a658                getuprun0007_Char_RL
 .rodata        0x0808a7d8       0xd4 ../data/Sprites/SpongeBob//libSpongeBob_Sprs.a(hitground0001_RL.o)
                0x0808a7d8                hitground0001_Char_RL
 .rodata        0x0808a8ac       0xbc ../data/Sprites/SpongeBob//libSpongeBob_Sprs.a(hitground0003_RL.o)
                0x0808a8ac                hitground0003_Char_RL
 .rodata        0x0808a968       0xcc ../data/Sprites/SpongeBob//libSpongeBob_Sprs.a(hitground0005_RL.o)
                0x0808a968                hitground0005_Char_RL
 .rodata        0x0808aa34       0xc8 ../data/Sprites/SpongeBob//libSpongeBob_Sprs.a(hitground0007_RL.o)
                0x0808aa34                hitground0007_Char_RL
 .rodata        0x0808aafc       0xb8 ../data/Sprites/SpongeBob//libSpongeBob_Sprs.a(hover0001_RL.o)
                0x0808aafc                hover0001_Char_RL
 .rodata        0x0808abb4       0xc4 ../data/Sprites/SpongeBob//libSpongeBob_Sprs.a(hover0003_RL.o)
                0x0808abb4                hover0003_Char_RL
 .rodata        0x0808ac78       0xc8 ../data/Sprites/SpongeBob//libSpongeBob_Sprs.a(hover0005_RL.o)
                0x0808ac78                hover0005_Char_RL
 .rodata        0x0808ad40       0xc8 ../data/Sprites/SpongeBob//libSpongeBob_Sprs.a(hover0007_RL.o)
                0x0808ad40                hover0007_Char_RL
 .rodata        0x0808ae08      0x1b8 ../data/Sprites/SpongeBob//libSpongeBob_Sprs.a(hoverend0000_RL.o)
                0x0808ae08                hoverend0000_Char_RL
 .rodata        0x0808afc0      0x17c ../data/Sprites/SpongeBob//libSpongeBob_Sprs.a(hoverend0001_RL.o)
                0x0808afc0                hoverend0001_Char_RL
 .rodata        0x0808b13c      0x194 ../data/Sprites/SpongeBob//libSpongeBob_Sprs.a(hoverstart0000_RL.o)
                0x0808b13c                hoverstart0000_Char_RL
 .rodata        0x0808b2d0      0x19c ../data/Sprites/SpongeBob//libSpongeBob_Sprs.a(hoverstart0001_RL.o)
                0x0808b2d0                hoverstart0001_Char_RL
 .rodata        0x0808b46c       0x5c ../data/Sprites/SpongeBob//libSpongeBob_Sprs.a(idlebouncehead0001_RL.o)
                0x0808b46c                idlebouncehead0001_Char_RL
 .rodata        0x0808b4c8       0x88 ../data/Sprites/SpongeBob//libSpongeBob_Sprs.a(idlebouncehead0003_RL.o)
                0x0808b4c8                idlebouncehead0003_Char_RL
 .rodata        0x0808b550       0x84 ../data/Sprites/SpongeBob//libSpongeBob_Sprs.a(idlebouncehead0005_RL.o)
                0x0808b550                idlebouncehead0005_Char_RL
 .rodata        0x0808b5d4       0x48 ../data/Sprites/SpongeBob//libSpongeBob_Sprs.a(idlebouncehead0007_RL.o)
                0x0808b5d4                idlebouncehead0007_Char_RL
 .rodata        0x0808b61c       0x1c ../data/Sprites/SpongeBob//libSpongeBob_Sprs.a(idlebouncehead0009_RL.o)
                0x0808b61c                idlebouncehead0009_Char_RL
 .rodata        0x0808b638       0x34 ../data/Sprites/SpongeBob//libSpongeBob_Sprs.a(idlebouncehead0011_RL.o)
                0x0808b638                idlebouncehead0011_Char_RL
 .rodata        0x0808b66c       0x40 ../data/Sprites/SpongeBob//libSpongeBob_Sprs.a(idlebouncehead0013_RL.o)
                0x0808b66c                idlebouncehead0013_Char_RL
 .rodata        0x0808b6ac       0x40 ../data/Sprites/SpongeBob//libSpongeBob_Sprs.a(idlebouncehead0015_RL.o)
                0x0808b6ac                idlebouncehead0015_Char_RL
 .rodata        0x0808b6ec       0x14 ../data/Sprites/SpongeBob//libSpongeBob_Sprs.a(idlebounceheadend0001_RL.o)
                0x0808b6ec                idlebounceheadend0001_Char_RL
 .rodata        0x0808b700       0x78 ../data/Sprites/SpongeBob//libSpongeBob_Sprs.a(idlebounceheadend0003_RL.o)
                0x0808b700                idlebounceheadend0003_Char_RL
 .rodata        0x0808b778       0xb0 ../data/Sprites/SpongeBob//libSpongeBob_Sprs.a(idlebounceheadend0005_RL.o)
                0x0808b778                idlebounceheadend0005_Char_RL
 .rodata        0x0808b828       0x80 ../data/Sprites/SpongeBob//libSpongeBob_Sprs.a(idlebounceheadend0007_RL.o)
                0x0808b828                idlebounceheadend0007_Char_RL
 .rodata        0x0808b8a8      0x1d0 ../data/Sprites/SpongeBob//libSpongeBob_Sprs.a(idlebounceheadstart0001_RL.o)
                0x0808b8a8                idlebounceheadstart0001_Char_RL
 .rodata        0x0808ba78      0x1ac ../data/Sprites/SpongeBob//libSpongeBob_Sprs.a(idlebounceheadstart0003_RL.o)
                0x0808ba78                idlebounceheadstart0003_Char_RL
 .rodata        0x0808bc24      0x18c ../data/Sprites/SpongeBob//libSpongeBob_Sprs.a(idlebounceheadstart0005_RL.o)
                0x0808bc24                idlebounceheadstart0005_Char_RL
 .rodata        0x0808bdb0      0x170 ../data/Sprites/SpongeBob//libSpongeBob_Sprs.a(idlebounceheadstart0007_RL.o)
                0x0808bdb0                idlebounceheadstart0007_Char_RL
 .rodata        0x0808bf20      0x1b4 ../data/Sprites/SpongeBob//libSpongeBob_Sprs.a(idlebreathe0000_RL.o)
                0x0808bf20                idlebreathe0000_Char_RL
 .rodata        0x0808c0d4      0x1c8 ../data/Sprites/SpongeBob//libSpongeBob_Sprs.a(idlebreathe0001_RL.o)
                0x0808c0d4                idlebreathe0001_Char_RL
 .rodata        0x0808c29c      0x1cc ../data/Sprites/SpongeBob//libSpongeBob_Sprs.a(idlebreathe0002_RL.o)
                0x0808c29c                idlebreathe0002_Char_RL
 .rodata        0x0808c468      0x1bc ../data/Sprites/SpongeBob//libSpongeBob_Sprs.a(idlebreathe0003_RL.o)
                0x0808c468                idlebreathe0003_Char_RL
 .rodata        0x0808c624       0xf4 ../data/Sprites/SpongeBob//libSpongeBob_Sprs.a(idlefaces0001_RL.o)
                0x0808c624                idlefaces0001_Char_RL
 .rodata        0x0808c718       0xf8 ../data/Sprites/SpongeBob//libSpongeBob_Sprs.a(idlefaces0003_RL.o)
                0x0808c718                idlefaces0003_Char_RL
 .rodata        0x0808c810      0x1cc ../data/Sprites/SpongeBob//libSpongeBob_Sprs.a(idlefaces0005_RL.o)
                0x0808c810                idlefaces0005_Char_RL
 .rodata        0x0808c9dc      0x188 ../data/Sprites/SpongeBob//libSpongeBob_Sprs.a(idlefaces0007_RL.o)
                0x0808c9dc                idlefaces0007_Char_RL
 .rodata        0x0808cb64      0x140 ../data/Sprites/SpongeBob//libSpongeBob_Sprs.a(idlefacesend0001_RL.o)
                0x0808cb64                idlefacesend0001_Char_RL
 .rodata        0x0808cca4      0x18c ../data/Sprites/SpongeBob//libSpongeBob_Sprs.a(idlefacesend0003_RL.o)
                0x0808cca4                idlefacesend0003_Char_RL
 .rodata        0x0808ce30      0x1cc ../data/Sprites/SpongeBob//libSpongeBob_Sprs.a(idlefacesend0005_RL.o)
                0x0808ce30                idlefacesend0005_Char_RL
 .rodata        0x0808cffc      0x1b4 ../data/Sprites/SpongeBob//libSpongeBob_Sprs.a(idlefacesend0007_RL.o)
                0x0808cffc                idlefacesend0007_Char_RL
 .rodata        0x0808d1b0      0x1b4 ../data/Sprites/SpongeBob//libSpongeBob_Sprs.a(idlefacesstart0000_RL.o)
                0x0808d1b0                idlefacesstart0000_Char_RL
 .rodata        0x0808d364      0x1b4 ../data/Sprites/SpongeBob//libSpongeBob_Sprs.a(idlefacesstart0001_RL.o)
                0x0808d364                idlefacesstart0001_Char_RL
 .rodata        0x0808d518      0x16c ../data/Sprites/SpongeBob//libSpongeBob_Sprs.a(idlehoola0001_RL.o)
                0x0808d518                idlehoola0001_Char_RL
 .rodata        0x0808d684      0x160 ../data/Sprites/SpongeBob//libSpongeBob_Sprs.a(idlehoola0003_RL.o)
                0x0808d684                idlehoola0003_Char_RL
 .rodata        0x0808d7e4      0x164 ../data/Sprites/SpongeBob//libSpongeBob_Sprs.a(idlehoola0005_RL.o)
                0x0808d7e4                idlehoola0005_Char_RL
 .rodata        0x0808d948      0x160 ../data/Sprites/SpongeBob//libSpongeBob_Sprs.a(idlehoola0007_RL.o)
                0x0808d948                idlehoola0007_Char_RL
 .rodata        0x0808daa8      0x164 ../data/Sprites/SpongeBob//libSpongeBob_Sprs.a(idlehoola0009_RL.o)
                0x0808daa8                idlehoola0009_Char_RL
 .rodata        0x0808dc0c      0x170 ../data/Sprites/SpongeBob//libSpongeBob_Sprs.a(idlehoola0011_RL.o)
                0x0808dc0c                idlehoola0011_Char_RL
 .rodata        0x0808dd7c      0x17c ../data/Sprites/SpongeBob//libSpongeBob_Sprs.a(idlehoola0013_RL.o)
                0x0808dd7c                idlehoola0013_Char_RL
 .rodata        0x0808def8      0x170 ../data/Sprites/SpongeBob//libSpongeBob_Sprs.a(idlehoola0015_RL.o)
                0x0808def8                idlehoola0015_Char_RL
 .rodata        0x0808e068      0x1b4 ../data/Sprites/SpongeBob//libSpongeBob_Sprs.a(idlekarate0001_RL.o)
                0x0808e068                idlekarate0001_Char_RL
 .rodata        0x0808e21c      0x138 ../data/Sprites/SpongeBob//libSpongeBob_Sprs.a(idlekarate0003_RL.o)
                0x0808e21c                idlekarate0003_Char_RL
 .rodata        0x0808e354      0x138 ../data/Sprites/SpongeBob//libSpongeBob_Sprs.a(idlekarate0005_RL.o)
                0x0808e354                idlekarate0005_Char_RL
 .rodata        0x0808e48c      0x180 ../data/Sprites/SpongeBob//libSpongeBob_Sprs.a(idlekarate0007_RL.o)
                0x0808e48c                idlekarate0007_Char_RL
 .rodata        0x0808e60c      0x140 ../data/Sprites/SpongeBob//libSpongeBob_Sprs.a(idlekarate0009_RL.o)
                0x0808e60c                idlekarate0009_Char_RL
 .rodata        0x0808e74c      0x130 ../data/Sprites/SpongeBob//libSpongeBob_Sprs.a(idlekarate0011_RL.o)
                0x0808e74c                idlekarate0011_Char_RL
 .rodata        0x0808e87c      0x12c ../data/Sprites/SpongeBob//libSpongeBob_Sprs.a(idlekarate0013_RL.o)
                0x0808e87c                idlekarate0013_Char_RL
 .rodata        0x0808e9a8      0x1c8 ../data/Sprites/SpongeBob//libSpongeBob_Sprs.a(idlekarate0015_RL.o)
                0x0808e9a8                idlekarate0015_Char_RL
 .rodata        0x0808eb70      0x138 ../data/Sprites/SpongeBob//libSpongeBob_Sprs.a(idlesleep0001_RL.o)
                0x0808eb70                idlesleep0001_Char_RL
 .rodata        0x0808eca8      0x12c ../data/Sprites/SpongeBob//libSpongeBob_Sprs.a(idlesleep0003_RL.o)
                0x0808eca8                idlesleep0003_Char_RL
 .rodata        0x0808edd4      0x134 ../data/Sprites/SpongeBob//libSpongeBob_Sprs.a(idlesleep0005_RL.o)
                0x0808edd4                idlesleep0005_Char_RL
 .rodata        0x0808ef08      0x150 ../data/Sprites/SpongeBob//libSpongeBob_Sprs.a(idlesleep0007_RL.o)
                0x0808ef08                idlesleep0007_Char_RL
 .rodata        0x0808f058      0x1ac ../data/Sprites/SpongeBob//libSpongeBob_Sprs.a(idlesleepend0001_RL.o)
                0x0808f058                idlesleepend0001_Char_RL
 .rodata        0x0808f204      0x190 ../data/Sprites/SpongeBob//libSpongeBob_Sprs.a(idlesleepend0003_RL.o)
                0x0808f204                idlesleepend0003_Char_RL
 .rodata        0x0808f394      0x1e8 ../data/Sprites/SpongeBob//libSpongeBob_Sprs.a(idlesleepstart0001_RL.o)
                0x0808f394                idlesleepstart0001_Char_RL
 .rodata        0x0808f57c      0x148 ../data/Sprites/SpongeBob//libSpongeBob_Sprs.a(idlesleepstart0003_RL.o)
                0x0808f57c                idlesleepstart0003_Char_RL
 .rodata        0x0808f6c4      0x1d0 ../data/Sprites/SpongeBob//libSpongeBob_Sprs.a(idlesplitpants0001_RL.o)
                0x0808f6c4                idlesplitpants0001_Char_RL
 .rodata        0x0808f894      0x144 ../data/Sprites/SpongeBob//libSpongeBob_Sprs.a(idlesplitpants0003_RL.o)
                0x0808f894                idlesplitpants0003_Char_RL
 .rodata        0x0808f9d8       0xd0 ../data/Sprites/SpongeBob//libSpongeBob_Sprs.a(idlesplitpants0005_RL.o)
                0x0808f9d8                idlesplitpants0005_Char_RL
 .rodata        0x0808faa8       0xc0 ../data/Sprites/SpongeBob//libSpongeBob_Sprs.a(idlesplitpants0007_RL.o)
                0x0808faa8                idlesplitpants0007_Char_RL
 .rodata        0x0808fb68       0xc0 ../data/Sprites/SpongeBob//libSpongeBob_Sprs.a(idlesplitpants0009_RL.o)
                0x0808fb68                idlesplitpants0009_Char_RL
 .rodata        0x0808fc28      0x1e4 ../data/Sprites/SpongeBob//libSpongeBob_Sprs.a(idlesplitpants0011_RL.o)
                0x0808fc28                idlesplitpants0011_Char_RL
 .rodata        0x0808fe0c      0x158 ../data/Sprites/SpongeBob//libSpongeBob_Sprs.a(idlesplitpants0013_RL.o)
                0x0808fe0c                idlesplitpants0013_Char_RL
 .rodata        0x0808ff64      0x184 ../data/Sprites/SpongeBob//libSpongeBob_Sprs.a(idlesplitpants0015_RL.o)
                0x0808ff64                idlesplitpants0015_Char_RL
 .rodata        0x080900e8      0x180 ../data/Sprites/SpongeBob//libSpongeBob_Sprs.a(idlesplitpants0017_RL.o)
                0x080900e8                idlesplitpants0017_Char_RL
 .rodata        0x08090268      0x184 ../data/Sprites/SpongeBob//libSpongeBob_Sprs.a(idlesplitpants0019_RL.o)
                0x08090268                idlesplitpants0019_Char_RL
 .rodata        0x080903ec      0x184 ../data/Sprites/SpongeBob//libSpongeBob_Sprs.a(idlesplitpants0021_RL.o)
                0x080903ec                idlesplitpants0021_Char_RL
 .rodata        0x08090570      0x180 ../data/Sprites/SpongeBob//libSpongeBob_Sprs.a(idlesplitpants0023_RL.o)
                0x08090570                idlesplitpants0023_Char_RL
 .rodata        0x080906f0      0x1b8 ../data/Sprites/SpongeBob//libSpongeBob_Sprs.a(idleweapon0001_RL.o)
                0x080906f0                idleweapon0001_Char_RL
 .rodata        0x080908a8      0x1a0 ../data/Sprites/SpongeBob//libSpongeBob_Sprs.a(idleweapon0003_RL.o)
                0x080908a8                idleweapon0003_Char_RL
 .rodata        0x08090a48      0x1ac ../data/Sprites/SpongeBob//libSpongeBob_Sprs.a(idleweapon0005_RL.o)
                0x08090a48                idleweapon0005_Char_RL
 .rodata        0x08090bf4      0x1b0 ../data/Sprites/SpongeBob//libSpongeBob_Sprs.a(idleweapon0007_RL.o)
                0x08090bf4                idleweapon0007_Char_RL
 .rodata        0x08090da4      0x1a8 ../data/Sprites/SpongeBob//libSpongeBob_Sprs.a(idleweapon0009_RL.o)
                0x08090da4                idleweapon0009_Char_RL
 .rodata        0x08090f4c      0x1b0 ../data/Sprites/SpongeBob//libSpongeBob_Sprs.a(idleweapon0011_RL.o)
                0x08090f4c                idleweapon0011_Char_RL
 .rodata        0x080910fc      0x1b8 ../data/Sprites/SpongeBob//libSpongeBob_Sprs.a(idleweapon0013_RL.o)
                0x080910fc                idleweapon0013_Char_RL
 .rodata        0x080912b4      0x1ac ../data/Sprites/SpongeBob//libSpongeBob_Sprs.a(idleweapon0015_RL.o)
                0x080912b4                idleweapon0015_Char_RL
 .rodata        0x08091460      0x178 ../data/Sprites/SpongeBob//libSpongeBob_Sprs.a(idlewigglearms0001_RL.o)
                0x08091460                idlewigglearms0001_Char_RL
 .rodata        0x080915d8      0x17c ../data/Sprites/SpongeBob//libSpongeBob_Sprs.a(idlewigglearms0003_RL.o)
                0x080915d8                idlewigglearms0003_Char_RL
 .rodata        0x08091754      0x178 ../data/Sprites/SpongeBob//libSpongeBob_Sprs.a(idlewigglearms0005_RL.o)
                0x08091754                idlewigglearms0005_Char_RL
 .rodata        0x080918cc      0x178 ../data/Sprites/SpongeBob//libSpongeBob_Sprs.a(idlewigglearms0007_RL.o)
                0x080918cc                idlewigglearms0007_Char_RL
 .rodata        0x08091a44      0x17c ../data/Sprites/SpongeBob//libSpongeBob_Sprs.a(idlewigglearms0009_RL.o)
                0x08091a44                idlewigglearms0009_Char_RL
 .rodata        0x08091bc0      0x17c ../data/Sprites/SpongeBob//libSpongeBob_Sprs.a(idlewigglearms0011_RL.o)
                0x08091bc0                idlewigglearms0011_Char_RL
 .rodata        0x08091d3c      0x180 ../data/Sprites/SpongeBob//libSpongeBob_Sprs.a(idlewigglearms0013_RL.o)
                0x08091d3c                idlewigglearms0013_Char_RL
 .rodata        0x08091ebc      0x178 ../data/Sprites/SpongeBob//libSpongeBob_Sprs.a(idlewigglearms0015_RL.o)
                0x08091ebc                idlewigglearms0015_Char_RL
 .rodata        0x08092034      0x1e8 ../data/Sprites/SpongeBob//libSpongeBob_Sprs.a(idlewind0001_RL.o)
                0x08092034                idlewind0001_Char_RL
 .rodata        0x0809221c      0x1e8 ../data/Sprites/SpongeBob//libSpongeBob_Sprs.a(idlewind0003_RL.o)
                0x0809221c                idlewind0003_Char_RL
 .rodata        0x08092404      0x18c ../data/Sprites/SpongeBob//libSpongeBob_Sprs.a(idlewind0005_RL.o)
                0x08092404                idlewind0005_Char_RL
 .rodata        0x08092590      0x180 ../data/Sprites/SpongeBob//libSpongeBob_Sprs.a(idlewind0007_RL.o)
                0x08092590                idlewind0007_Char_RL
 .rodata        0x08092710      0x188 ../data/Sprites/SpongeBob//libSpongeBob_Sprs.a(idlewind0009_RL.o)
                0x08092710                idlewind0009_Char_RL
 .rodata        0x08092898      0x178 ../data/Sprites/SpongeBob//libSpongeBob_Sprs.a(idlewind0011_RL.o)
                0x08092898                idlewind0011_Char_RL
 .rodata        0x08092a10      0x1a4 ../data/Sprites/SpongeBob//libSpongeBob_Sprs.a(idlewind0013_RL.o)
                0x08092a10                idlewind0013_Char_RL
 .rodata        0x08092bb4      0x19c ../data/Sprites/SpongeBob//libSpongeBob_Sprs.a(idlewind0015_RL.o)
                0x08092bb4                idlewind0015_Char_RL
 .rodata        0x08092d50      0x1ac ../data/Sprites/SpongeBob//libSpongeBob_Sprs.a(jumpend0001_RL.o)
                0x08092d50                jumpend0001_Char_RL
 .rodata        0x08092efc      0x1b4 ../data/Sprites/SpongeBob//libSpongeBob_Sprs.a(jumpend0003_RL.o)
                0x08092efc                jumpend0003_Char_RL
 .rodata        0x080930b0      0x1bc ../data/Sprites/SpongeBob//libSpongeBob_Sprs.a(karate0001_RL.o)
                0x080930b0                karate0001_Char_RL
 .rodata        0x0809326c      0x18c ../data/Sprites/SpongeBob//libSpongeBob_Sprs.a(karate0003_RL.o)
                0x0809326c                karate0003_Char_RL
 .rodata        0x080933f8      0x16c ../data/Sprites/SpongeBob//libSpongeBob_Sprs.a(karate0005_RL.o)
                0x080933f8                karate0005_Char_RL
 .rodata        0x08093564      0x19c ../data/Sprites/SpongeBob//libSpongeBob_Sprs.a(karate0007_RL.o)
                0x08093564                karate0007_Char_RL
 .rodata        0x08093700      0x1ac ../data/Sprites/SpongeBob//libSpongeBob_Sprs.a(karate0009_RL.o)
                0x08093700                karate0009_Char_RL
 .rodata        0x080938ac      0x178 ../data/Sprites/SpongeBob//libSpongeBob_Sprs.a(karate0011_RL.o)
                0x080938ac                karate0011_Char_RL
 .rodata        0x08093a24      0x1b4 ../data/Sprites/SpongeBob//libSpongeBob_Sprs.a(karate0013_RL.o)
                0x08093a24                karate0013_Char_RL
 .rodata        0x08093bd8      0x1b4 ../data/Sprites/SpongeBob//libSpongeBob_Sprs.a(karate0015_RL.o)
                0x08093bd8                karate0015_Char_RL
 .rodata        0x08093d8c      0x1b8 ../data/Sprites/SpongeBob//libSpongeBob_Sprs.a(netfirelob0001_RL.o)
                0x08093d8c                netfirelob0001_Char_RL
 .rodata        0x08093f44      0x1bc ../data/Sprites/SpongeBob//libSpongeBob_Sprs.a(netfirelob0003_RL.o)
                0x08093f44                netfirelob0003_Char_RL
 .rodata        0x08094100      0x1a0 ../data/Sprites/SpongeBob//libSpongeBob_Sprs.a(netfirelob0005_RL.o)
                0x08094100                netfirelob0005_Char_RL
 .rodata        0x080942a0      0x160 ../data/Sprites/SpongeBob//libSpongeBob_Sprs.a(netfirelob0007_RL.o)
                0x080942a0                netfirelob0007_Char_RL
 .rodata        0x08094400      0x158 ../data/Sprites/SpongeBob//libSpongeBob_Sprs.a(netfirelob0009_RL.o)
                0x08094400                netfirelob0009_Char_RL
 .rodata        0x08094558      0x108 ../data/Sprites/SpongeBob//libSpongeBob_Sprs.a(netfirelob0011_RL.o)
                0x08094558                netfirelob0011_Char_RL
 .rodata        0x08094660       0xf8 ../data/Sprites/SpongeBob//libSpongeBob_Sprs.a(netfirelob0013_RL.o)
                0x08094660                netfirelob0013_Char_RL
 .rodata        0x08094758      0x10c ../data/Sprites/SpongeBob//libSpongeBob_Sprs.a(netfirelob0015_RL.o)
                0x08094758                netfirelob0015_Char_RL
 .rodata        0x08094864      0x1a8 ../data/Sprites/SpongeBob//libSpongeBob_Sprs.a(netswipe0001_RL.o)
                0x08094864                netswipe0001_Char_RL
 .rodata        0x08094a0c      0x1b0 ../data/Sprites/SpongeBob//libSpongeBob_Sprs.a(netswipe0003_RL.o)
                0x08094a0c                netswipe0003_Char_RL
 .rodata        0x08094bbc      0x1e4 ../data/Sprites/SpongeBob//libSpongeBob_Sprs.a(netswipe0005_RL.o)
                0x08094bbc                netswipe0005_Char_RL
 .rodata        0x08094da0      0x1e4 ../data/Sprites/SpongeBob//libSpongeBob_Sprs.a(netswipe0007_RL.o)
                0x08094da0                netswipe0007_Char_RL
 .rodata        0x08094f84      0x1e8 ../data/Sprites/SpongeBob//libSpongeBob_Sprs.a(netswipe0009_RL.o)
                0x08094f84                netswipe0009_Char_RL
 .rodata        0x0809516c      0x1e4 ../data/Sprites/SpongeBob//libSpongeBob_Sprs.a(netswipe0011_RL.o)
                0x0809516c                netswipe0011_Char_RL
 .rodata        0x08095350      0x1ec ../data/Sprites/SpongeBob//libSpongeBob_Sprs.a(netswipe0013_RL.o)
                0x08095350                netswipe0013_Char_RL
 .rodata        0x0809553c      0x1a8 ../data/Sprites/SpongeBob//libSpongeBob_Sprs.a(netswipe0015_RL.o)
                0x0809553c                netswipe0015_Char_RL
 .rodata        0x080956e4      0x188 ../data/Sprites/SpongeBob//libSpongeBob_Sprs.a(run0000_RL.o)
                0x080956e4                run0000_Char_RL
 .rodata        0x0809586c      0x19c ../data/Sprites/SpongeBob//libSpongeBob_Sprs.a(run0001_RL.o)
                0x0809586c                run0001_Char_RL
 .rodata        0x08095a08      0x1a4 ../data/Sprites/SpongeBob//libSpongeBob_Sprs.a(run0002_RL.o)
                0x08095a08                run0002_Char_RL
 .rodata        0x08095bac      0x1a4 ../data/Sprites/SpongeBob//libSpongeBob_Sprs.a(run0003_RL.o)
                0x08095bac                run0003_Char_RL
 .rodata        0x08095d50      0x194 ../data/Sprites/SpongeBob//libSpongeBob_Sprs.a(run0004_RL.o)
                0x08095d50                run0004_Char_RL
 .rodata        0x08095ee4      0x1c0 ../data/Sprites/SpongeBob//libSpongeBob_Sprs.a(run0005_RL.o)
                0x08095ee4                run0005_Char_RL
 .rodata        0x080960a4      0x1d0 ../data/Sprites/SpongeBob//libSpongeBob_Sprs.a(run0006_RL.o)
                0x080960a4                run0006_Char_RL
 .rodata        0x08096274      0x1d4 ../data/Sprites/SpongeBob//libSpongeBob_Sprs.a(run0007_RL.o)
                0x08096274                run0007_Char_RL
 .rodata        0x08096448      0x1c4 ../data/Sprites/SpongeBob//libSpongeBob_Sprs.a(run0008_RL.o)
                0x08096448                run0008_Char_RL
 .rodata        0x0809660c      0x1c8 ../data/Sprites/SpongeBob//libSpongeBob_Sprs.a(run0009_RL.o)
                0x0809660c                run0009_Char_RL
 .rodata        0x080967d4      0x1c4 ../data/Sprites/SpongeBob//libSpongeBob_Sprs.a(run0010_RL.o)
                0x080967d4                run0010_Char_RL
 .rodata        0x08096998      0x1a4 ../data/Sprites/SpongeBob//libSpongeBob_Sprs.a(run0011_RL.o)
                0x08096998                run0011_Char_RL
 .rodata        0x08096b3c      0x190 ../data/Sprites/SpongeBob//libSpongeBob_Sprs.a(run0012_RL.o)
                0x08096b3c                run0012_Char_RL
 .rodata        0x08096ccc      0x190 ../data/Sprites/SpongeBob//libSpongeBob_Sprs.a(run0013_RL.o)
                0x08096ccc                run0013_Char_RL
 .rodata        0x08096e5c      0x198 ../data/Sprites/SpongeBob//libSpongeBob_Sprs.a(run0014_RL.o)
                0x08096e5c                run0014_Char_RL
 .rodata        0x08096ff4      0x188 ../data/Sprites/SpongeBob//libSpongeBob_Sprs.a(run0015_RL.o)
                0x08096ff4                run0015_Char_RL
 .rodata        0x0809717c      0x1ac ../data/Sprites/SpongeBob//libSpongeBob_Sprs.a(soakup0001_RL.o)
                0x0809717c                soakup0001_Char_RL
 .rodata        0x08097328      0x1a4 ../data/Sprites/SpongeBob//libSpongeBob_Sprs.a(soakup0003_RL.o)
                0x08097328                soakup0003_Char_RL
 .rodata        0x080974cc      0x148 ../data/Sprites/SpongeBob//libSpongeBob_Sprs.a(soakup0005_RL.o)
                0x080974cc                soakup0005_Char_RL
 .rodata        0x08097614       0xd4 ../data/Sprites/SpongeBob//libSpongeBob_Sprs.a(soakup0007_RL.o)
                0x08097614                soakup0007_Char_RL
 .rodata        0x080976e8      0x1c4 ../data/Sprites/SpongeBob//libSpongeBob_Sprs.a(teeterfront0001_RL.o)
                0x080976e8                teeterfront0001_Char_RL
 .rodata        0x080978ac      0x1a0 ../data/Sprites/SpongeBob//libSpongeBob_Sprs.a(teeterfront0003_RL.o)
                0x080978ac                teeterfront0003_Char_RL
 .rodata        0x08097a4c      0x19c ../data/Sprites/SpongeBob//libSpongeBob_Sprs.a(teeterfront0005_RL.o)
                0x08097a4c                teeterfront0005_Char_RL
 .rodata        0x08097be8      0x1a0 ../data/Sprites/SpongeBob//libSpongeBob_Sprs.a(teeterfront0007_RL.o)
                0x08097be8                teeterfront0007_Char_RL
 .rodata        0x08097d88      0x1a4 ../data/Sprites/SpongeBob//libSpongeBob_Sprs.a(teeterfront0009_RL.o)
                0x08097d88                teeterfront0009_Char_RL
 .rodata        0x08097f2c      0x19c ../data/Sprites/SpongeBob//libSpongeBob_Sprs.a(teeterfront0011_RL.o)
                0x08097f2c                teeterfront0011_Char_RL
 .rodata        0x080980c8      0x1c0 ../data/Sprites/SpongeBob//libSpongeBob_Sprs.a(teeterfront0013_RL.o)
                0x080980c8                teeterfront0013_Char_RL
 .rodata        0x08098288      0x1ac ../data/Sprites/SpongeBob//libSpongeBob_Sprs.a(teeterfront0015_RL.o)
                0x08098288                teeterfront0015_Char_RL
 .rodata        0x08098434      0x190 ../data/Sprites/SpongeBob//libSpongeBob_Sprs.a(walkforward0001_RL.o)
                0x08098434                walkforward0001_Char_RL
 .rodata        0x080985c4      0x18c ../data/Sprites/SpongeBob//libSpongeBob_Sprs.a(walkforward0003_RL.o)
                0x080985c4                walkforward0003_Char_RL
 .rodata        0x08098750      0x194 ../data/Sprites/SpongeBob//libSpongeBob_Sprs.a(walkforward0005_RL.o)
                0x08098750                walkforward0005_Char_RL
 .rodata        0x080988e4      0x19c ../data/Sprites/SpongeBob//libSpongeBob_Sprs.a(walkforward0007_RL.o)
                0x080988e4                walkforward0007_Char_RL
 .rodata        0x08098a80      0x18c ../data/Sprites/SpongeBob//libSpongeBob_Sprs.a(walkforward0009_RL.o)
                0x08098a80                walkforward0009_Char_RL
 .rodata        0x08098c0c      0x190 ../data/Sprites/SpongeBob//libSpongeBob_Sprs.a(walkforward0011_RL.o)
                0x08098c0c                walkforward0011_Char_RL
 .rodata        0x08098d9c      0x198 ../data/Sprites/SpongeBob//libSpongeBob_Sprs.a(walkforward0013_RL.o)
                0x08098d9c                walkforward0013_Char_RL
 .rodata        0x08098f34      0x190 ../data/Sprites/SpongeBob//libSpongeBob_Sprs.a(walkforward0015_RL.o)
                0x08098f34                walkforward0015_Char_RL
 .rodata        0x080990c4      0x400 ../data/Sprites/NPC//libNPC_Sprs.a(patrick0001.o)
                0x080990c4                patrick0001_Char
 .rodata        0x080994c4      0x200 ../data/Sprites/Platforms//libPlatforms_Sprs.a(platform0001.o)
                0x080994c4                platform0001_Char
 .rodata        0x080996c4      0x400 ../data/Sprites/Monsters//libMonsters_Sprs.a(clamsidesnap0001.o)
                0x080996c4                clamsidesnap0001_Char
 .rodata        0x08099ac4      0x400 ../data/Sprites/Monsters//libMonsters_Sprs.a(clamsidesnap0003.o)
                0x08099ac4                clamsidesnap0003_Char
 .rodata        0x08099ec4      0x400 ../data/Sprites/Monsters//libMonsters_Sprs.a(clamsidesnap0005.o)
                0x08099ec4                clamsidesnap0005_Char
 .rodata        0x0809a2c4      0x400 ../data/Sprites/Monsters//libMonsters_Sprs.a(clamsidesnap0007.o)
                0x0809a2c4                clamsidesnap0007_Char
 .rodata        0x0809a6c4      0x400 ../data/Sprites/Monsters//libMonsters_Sprs.a(clamsnapup0001.o)
                0x0809a6c4                clamsnapup0001_Char
 .rodata        0x0809aac4      0x400 ../data/Sprites/Monsters//libMonsters_Sprs.a(clamsnapup0003.o)
                0x0809aac4                clamsnapup0003_Char
 .rodata        0x0809aec4      0x400 ../data/Sprites/Monsters//libMonsters_Sprs.a(clamsnapup0005.o)
                0x0809aec4                clamsnapup0005_Char
 *(.rodata.*)
 *(.gnu.linkonce.r*)

.rodata1
 *(.rodata1)
                0x0809b3c4                .=(ALIGN(0x100)+(.&0xff))

.data           0x0809b3c4   0x49dfb8
 *(.data)
 .data          0x0809b3c4      0x7b0 SprEng_Animate.o
                0x0809b86c                SB_TeeterFront_Anim
                0x0809b580                SB_Hover_Anim
                0x0809b754                SB_IdleWiggleArms_Anim
                0x0809b4f4                SB_FaceBack_Anim
                0x0809b4e8                SB_ElectricShockStart_Anim
                0x0809b544                SB_GetUp_Anim
                0x0809b530                SB_FireStart_Anim
                0x0809b6fc                SB_IdleSplitPants_Anim
                0x0809b604                SB_IdleBounceHeadStart_Anim
                0x0809b7a8                SB_Karate_Anim
                0x0809b7f0                SB_NetSwipe_Anim
                0x0809b458                SB_DeathSpin_Anim
                0x0809b730                SB_IdleWeapon_Anim
                0x0809b79c                SB_JumpEnd_Anim
                0x0809b47c                SB_DeathSquash_Anim
                0x0809b594                SB_HoverEnd_Anim
                0x0809b908                Clam_SidesSnap_Anim
                0x0809b8cc                SB_LookUp_Anim
                0x0809b514                SB_Fall_Anim
                0x0809b62c                SB_IdleFaces_Anim
                0x0809b778                SB_IdleWind_Anim
                0x0809b8f8                Platform1_Temp_Anim
                0x0809b858                SB_SoakUp_Anim
                0x0809b69c                SB_IdleKarate_Anim
                0x0809b558                SB_GetUpRun_Anim
                0x0809b678                SB_IdleHoola_Anim
                0x0809b3d8                SB_ButtBounceStart_Anim
                0x0809b5ac                SB_IdleBounceHead_Anim
                0x0809b658                SB_IdleFacesEnd_Anim
                0x0809b4b4                SB_DeathTarStart_Anim
                0x0809b66c                SB_IdleFacesStart_Anim
                0x0809b8dc                SB_LookDown_Anim
                0x0809b410                SB_DeathDry_Anim
                0x0809b8bc                SB_Jump_Anim
                0x0809b508                SB_FaceFront_Anim
                0x0809b890                SB_WalkForward_Anim
                0x0809b900                Clam_Wait_Anim
                0x0809b5f0                SB_IdleBounceHeadEnd_Anim
                0x0809b7cc                SB_NetFireLob_Anim
                0x0809b434                SB_DeathForwards_Anim
                0x0809b4dc                SB_ElectricShockEnd_Anim
                0x0809b814                SB_Run_Anim
                0x0809b6f0                SB_IdleSleepStart_Anim
                0x0809b5a0                SB_HoverStart_Anim
                0x0809b3c4                SB_ButtBounceEnd_Anim
                0x0809b56c                SB_HitGround_Anim
                0x0809b8b4                SB_Stand_Anim
                0x0809b9b8                Anim_List
                0x0809b4a0                SB_DeathTar_Anim
                0x0809b618                SB_IdleBreathe_Anim
                0x0809b4c8                SB_ElectricShock_Anim
                0x0809b3ec                SB_DeathBackwards_Anim
                0x0809b524                SB_FireEnd_Anim
                0x0809b8f0                Patrick_Temp_Anim
                0x0809b6e4                SB_IdleSleepEnd_Anim
                0x0809b96c                Clam_SnapUp_Anim
                0x0809b8c4                SB_JumpFall_Anim
                0x0809b6c0                SB_IdleSleep_Anim
 .data          0x0809bb74      0x578 Text_Sys.o
                0x0809bcfc                SFXVOL
                0x0809bbc0                YES
                0x0809bec4                PCT90
                0x0809beac                PCT85
                0x0809bbc4                NO
                0x0809c074                CHAP53
                0x0809bf48                CHAP14
                0x0809bffc                CHAP41
                0x0809be7c                PCT75
                0x0809bda4                PCT30
                0x0809bb8c                PRESSSTART
                0x0809bce4                MUSICVOL
                0x0809bc28                PASSWORD
                0x0809c09c                CHAP61
                0x0809bf98                CHAP24
                0x0809bc9c                CONTA
                0x0809c038                CHAP44
                0x0809bfd4                CHAP33
                0x0809be4c                PCT65
                0x0809bfe8                CHAP34
                0x0809bef4                PCT100
                0x0809bf70                CHAP22
                0x0809bd14                PCT0
                0x0809bfac                CHAP31
                0x0809bba4                COPYRIGHT
                0x0809c088                CHAP54
                0x0809be64                PCT70
                0x0809be34                PCT60
                0x0809bc54                OPTION
                0x0809bc40                PASSWORD2
                0x0809bedc                PCT95
                0x0809be04                PCT50
                0x0809bcb4                CONTB
                0x0809bb74                GAMENAME
                0x0809bbf8                MENU
                0x0809be94                PCT80
                0x0809bdec                PCT45
                0x0809bd5c                PCT15
                0x0809c04c                CHAP51
                0x0809bf20                CHAP12
                0x0809bfc0                CHAP32
                0x0809c0b0                CHAP62
                0x0809bbe0                MUSICOFF
                0x0809bdbc                PCT35
                0x0809bbbc                OK
                0x0809bd8c                PCT25
                0x0809c0d8                CHAP64
                0x0809bdd4                PCT40
                0x0809bd44                PCT10
                0x0809bd74                PCT20
                0x0809bc84                CONTROLLER
                0x0809bd2c                PCT5
                0x0809bbc8                MUSICON
                0x0809bc10                NEWGAME
                0x0809c060                CHAP52
                0x0809bf34                CHAP13
                0x0809be1c                PCT55
                0x0809c010                CHAP42
                0x0809bccc                SOUND
                0x0809c024                CHAP43
                0x0809bf0c                CHAP11
                0x0809bc6c                CREDITS
                0x0809c0c4                CHAP63
                0x0809bf84                CHAP23
                0x0809bf5c                CHAP21
 .data          0x0809c0ec     0x9c90 ../data/Maps//libMaps.a(CHAPTER01_LEVEL0101.o)
                0x0809c0f0                CHAPTER01_LEVEL0101_BACK
                0x0809e9f4                CHAPTER01_LEVEL0101_ACTION_WIDTH
                0x0809c0ec                CHAPTER01_LEVEL0101_BACK_WIDTH
                0x0809c8f2                CHAPTER01_LEVEL0101_MID_HEIGHT
                0x0809c8f0                CHAPTER01_LEVEL0101_MID_WIDTH
                0x080a36f8                CHAPTER01_LEVEL0101_COLLISION_WIDTH
                0x0809e9f6                CHAPTER01_LEVEL0101_ACTION_HEIGHT
                0x0809e9f8                CHAPTER01_LEVEL0101_ACTION
                0x0809c8f4                CHAPTER01_LEVEL0101_MID
                0x080a36fa                CHAPTER01_LEVEL0101_COLLISION_HEIGHT
                0x0809c0ee                CHAPTER01_LEVEL0101_BACK_HEIGHT
                0x080a36fc                CHAPTER01_LEVEL0101_COLLISION
 .data          0x080a5d7c     0x2f68 ../data/Maps//libMaps.a(CHAPTER01_LEVEL0102.o)
                0x080a8378                CHAPTER01_LEVEL0102_COLLISION_WIDTH
                0x080a5d7c                CHAPTER01_LEVEL0102_BACK_WIDTH
                0x080a70a6                CHAPTER01_LEVEL0102_ACTION_WIDTH
                0x080a6582                CHAPTER01_LEVEL0102_MID_HEIGHT
                0x080a5d80                CHAPTER01_LEVEL0102_BACK
                0x080a70aa                CHAPTER01_LEVEL0102_ACTION
                0x080a837c                CHAPTER01_LEVEL0102_COLLISION
                0x080a837a                CHAPTER01_LEVEL0102_COLLISION_HEIGHT
                0x080a5d7e                CHAPTER01_LEVEL0102_BACK_HEIGHT
                0x080a6584                CHAPTER01_LEVEL0102_MID
                0x080a70a8                CHAPTER01_LEVEL0102_ACTION_HEIGHT
                0x080a6580                CHAPTER01_LEVEL0102_MID_WIDTH
 .data          0x080a8ce4     0x2f68 ../data/Maps//libMaps.a(CHAPTER01_LEVEL0103.o)
                0x080aa010                CHAPTER01_LEVEL0103_ACTION_HEIGHT
                0x080aa012                CHAPTER01_LEVEL0103_ACTION
                0x080a8ce8                CHAPTER01_LEVEL0103_BACK
                0x080a94ec                CHAPTER01_LEVEL0103_MID
                0x080a94ea                CHAPTER01_LEVEL0103_MID_HEIGHT
                0x080a8ce4                CHAPTER01_LEVEL0103_BACK_WIDTH
                0x080ab2e4                CHAPTER01_LEVEL0103_COLLISION
                0x080ab2e0                CHAPTER01_LEVEL0103_COLLISION_WIDTH
                0x080ab2e2                CHAPTER01_LEVEL0103_COLLISION_HEIGHT
                0x080a94e8                CHAPTER01_LEVEL0103_MID_WIDTH
                0x080a8ce6                CHAPTER01_LEVEL0103_BACK_HEIGHT
                0x080aa00e                CHAPTER01_LEVEL0103_ACTION_WIDTH
 .data          0x080abc4c     0x694c ../data/Maps//libMaps.a(CHAPTER01_LEVEL0104.o)
                0x080ac454                CHAPTER01_LEVEL0104_MID
                0x080abc50                CHAPTER01_LEVEL0104_BACK
                0x080ac450                CHAPTER01_LEVEL0104_MID_WIDTH
                0x080abc4e                CHAPTER01_LEVEL0104_BACK_HEIGHT
                0x080adb14                CHAPTER01_LEVEL0104_ACTION
                0x080b0cc0                CHAPTER01_LEVEL0104_COLLISION_HEIGHT
                0x080adb12                CHAPTER01_LEVEL0104_ACTION_HEIGHT
                0x080b0cbe                CHAPTER01_LEVEL0104_COLLISION_WIDTH
                0x080ac452                CHAPTER01_LEVEL0104_MID_HEIGHT
                0x080abc4c                CHAPTER01_LEVEL0104_BACK_WIDTH
                0x080adb10                CHAPTER01_LEVEL0104_ACTION_WIDTH
                0x080b0cc2                CHAPTER01_LEVEL0104_COLLISION
 .data          0x080b2598     0x6a68 ../data/Maps//libMaps.a(CHAPTER01_LEVEL0105.o)
                0x080b2d9e                CHAPTER01_LEVEL0105_MID_HEIGHT
                0x080b259a                CHAPTER01_LEVEL0105_BACK_HEIGHT
                0x080b2da0                CHAPTER01_LEVEL0105_MID
                0x080b2d9c                CHAPTER01_LEVEL0105_MID_WIDTH
                0x080b4462                CHAPTER01_LEVEL0105_ACTION_HEIGHT
                0x080b259c                CHAPTER01_LEVEL0105_BACK
                0x080b2598                CHAPTER01_LEVEL0105_BACK_WIDTH
                0x080b4460                CHAPTER01_LEVEL0105_ACTION_WIDTH
                0x080b4464                CHAPTER01_LEVEL0105_ACTION
                0x080b76c8                CHAPTER01_LEVEL0105_COLLISION_WIDTH
                0x080b76ca                CHAPTER01_LEVEL0105_COLLISION_HEIGHT
                0x080b76cc                CHAPTER01_LEVEL0105_COLLISION
 .data          0x080b9000     0x3e90 ../data/Maps//libMaps.a(CHAPTER01_LEVEL0201.o)
                0x080b9804                CHAPTER01_LEVEL0201_MID_WIDTH
                0x080b9806                CHAPTER01_LEVEL0201_MID_HEIGHT
                0x080ba618                CHAPTER01_LEVEL0201_ACTION_WIDTH
                0x080b9808                CHAPTER01_LEVEL0201_MID
                0x080bc114                CHAPTER01_LEVEL0201_COLLISION
                0x080ba61a                CHAPTER01_LEVEL0201_ACTION_HEIGHT
                0x080b9000                CHAPTER01_LEVEL0201_BACK_WIDTH
                0x080b9004                CHAPTER01_LEVEL0201_BACK
                0x080ba61c                CHAPTER01_LEVEL0201_ACTION
                0x080bc110                CHAPTER01_LEVEL0201_COLLISION_WIDTH
                0x080bc112                CHAPTER01_LEVEL0201_COLLISION_HEIGHT
                0x080b9002                CHAPTER01_LEVEL0201_BACK_HEIGHT
 .data          0x080bce90     0x2fb8 ../data/Maps//libMaps.a(CHAPTER01_LEVEL0204.o)
                0x080bf4e6                CHAPTER01_LEVEL0204_COLLISION_HEIGHT
                0x080be222                CHAPTER01_LEVEL0204_ACTION_HEIGHT
                0x080bd696                CHAPTER01_LEVEL0204_MID_HEIGHT
                0x080bd698                CHAPTER01_LEVEL0204_MID
                0x080be220                CHAPTER01_LEVEL0204_ACTION_WIDTH
                0x080be224                CHAPTER01_LEVEL0204_ACTION
                0x080bf4e4                CHAPTER01_LEVEL0204_COLLISION_WIDTH
                0x080bf4e8                CHAPTER01_LEVEL0204_COLLISION
                0x080bce94                CHAPTER01_LEVEL0204_BACK
                0x080bd694                CHAPTER01_LEVEL0204_MID_WIDTH
                0x080bce90                CHAPTER01_LEVEL0204_BACK_WIDTH
                0x080bce92                CHAPTER01_LEVEL0204_BACK_HEIGHT
 .data          0x080bfe48     0x5ca0 ../data/Maps//libMaps.a(CHAPTER01_LEVEL0301.o)
                0x080bfe4c                CHAPTER01_LEVEL0301_BACK
                0x080c1aaa                CHAPTER01_LEVEL0301_ACTION_HEIGHT
                0x080c457c                CHAPTER01_LEVEL0301_COLLISION_WIDTH
                0x080c1aac                CHAPTER01_LEVEL0301_ACTION
                0x080bfe48                CHAPTER01_LEVEL0301_BACK_WIDTH
                0x080c457e                CHAPTER01_LEVEL0301_COLLISION_HEIGHT
                0x080c4580                CHAPTER01_LEVEL0301_COLLISION
                0x080bfe4a                CHAPTER01_LEVEL0301_BACK_HEIGHT
                0x080c1aa8                CHAPTER01_LEVEL0301_ACTION_WIDTH
                0x080c064e                CHAPTER01_LEVEL0301_MID_HEIGHT
                0x080c064c                CHAPTER01_LEVEL0301_MID_WIDTH
                0x080c0650                CHAPTER01_LEVEL0301_MID
 .data          0x080c5ae8     0x83b8 ../data/Maps//libMaps.a(CHAPTER01_LEVEL0302.o)
                0x080c62ee                CHAPTER01_LEVEL0302_MID_HEIGHT
                0x080cbe96                CHAPTER01_LEVEL0302_COLLISION_HEIGHT
                0x080c7e80                CHAPTER01_LEVEL0302_ACTION_WIDTH
                0x080c5aec                CHAPTER01_LEVEL0302_BACK
                0x080c62ec                CHAPTER01_LEVEL0302_MID_WIDTH
                0x080c5ae8                CHAPTER01_LEVEL0302_BACK_WIDTH
                0x080c62f0                CHAPTER01_LEVEL0302_MID
                0x080c7e84                CHAPTER01_LEVEL0302_ACTION
                0x080c7e82                CHAPTER01_LEVEL0302_ACTION_HEIGHT
                0x080c5aea                CHAPTER01_LEVEL0302_BACK_HEIGHT
                0x080cbe98                CHAPTER01_LEVEL0302_COLLISION
                0x080cbe94                CHAPTER01_LEVEL0302_COLLISION_WIDTH
 .data          0x080cdea0     0x6e54 ../data/Maps//libMaps.a(CHAPTER01_LEVEL0303.o)
                0x080d32b2                CHAPTER01_LEVEL0303_COLLISION_HEIGHT
                0x080d32b4                CHAPTER01_LEVEL0303_COLLISION
                0x080cfe2c                CHAPTER01_LEVEL0303_ACTION_WIDTH
                0x080cdea2                CHAPTER01_LEVEL0303_BACK_HEIGHT
                0x080ce6a4                CHAPTER01_LEVEL0303_MID_WIDTH
                0x080d32b0                CHAPTER01_LEVEL0303_COLLISION_WIDTH
                0x080cdea0                CHAPTER01_LEVEL0303_BACK_WIDTH
                0x080cfe2e                CHAPTER01_LEVEL0303_ACTION_HEIGHT
                0x080ce6a8                CHAPTER01_LEVEL0303_MID
                0x080ce6a6                CHAPTER01_LEVEL0303_MID_HEIGHT
                0x080cfe30                CHAPTER01_LEVEL0303_ACTION
                0x080cdea4                CHAPTER01_LEVEL0303_BACK
 .data          0x080d4cf4     0x4fa8 ../data/Maps//libMaps.a(CHAPTER01_LEVEL0401.o)
                0x080d66ae                CHAPTER01_LEVEL0401_ACTION
                0x080d66aa                CHAPTER01_LEVEL0401_ACTION_WIDTH
                0x080d54f8                CHAPTER01_LEVEL0401_MID_WIDTH
                0x080d66ac                CHAPTER01_LEVEL0401_ACTION_HEIGHT
                0x080d8aa2                CHAPTER01_LEVEL0401_COLLISION
                0x080d8a9e                CHAPTER01_LEVEL0401_COLLISION_WIDTH
                0x080d4cf6                CHAPTER01_LEVEL0401_BACK_HEIGHT
                0x080d8aa0                CHAPTER01_LEVEL0401_COLLISION_HEIGHT
                0x080d54fa                CHAPTER01_LEVEL0401_MID_HEIGHT
                0x080d4cf4                CHAPTER01_LEVEL0401_BACK_WIDTH
                0x080d4cf8                CHAPTER01_LEVEL0401_BACK
                0x080d54fc                CHAPTER01_LEVEL0401_MID
 .data          0x080d9c9c     0x84a0 ../data/Maps//libMaps.a(CHAPTER02_LEVEL0101.o)
                0x080d9c9e                CHAPTER02_LEVEL0101_BACK_HEIGHT
                0x080dbec4                CHAPTER02_LEVEL0101_ACTION_WIDTH
                0x080e006a                CHAPTER02_LEVEL0101_COLLISION_HEIGHT
                0x080e0068                CHAPTER02_LEVEL0101_COLLISION_WIDTH
                0x080dbec8                CHAPTER02_LEVEL0101_ACTION
                0x080d9c9c                CHAPTER02_LEVEL0101_BACK_WIDTH
                0x080da2a2                CHAPTER02_LEVEL0101_MID_HEIGHT
                0x080dbec6                CHAPTER02_LEVEL0101_ACTION_HEIGHT
                0x080da2a0                CHAPTER02_LEVEL0101_MID_WIDTH
                0x080e006c                CHAPTER02_LEVEL0101_COLLISION
                0x080d9ca0                CHAPTER02_LEVEL0101_BACK
                0x080da2a4                CHAPTER02_LEVEL0101_MID
 .data          0x080e213c     0x6928 ../data/Maps//libMaps.a(CHAPTER02_LEVEL0102.o)
                0x080e3d98                CHAPTER02_LEVEL0102_ACTION
                0x080e70ca                CHAPTER02_LEVEL0102_COLLISION_HEIGHT
                0x080e70c8                CHAPTER02_LEVEL0102_COLLISION_WIDTH
                0x080e70cc                CHAPTER02_LEVEL0102_COLLISION
                0x080e213c                CHAPTER02_LEVEL0102_BACK_WIDTH
                0x080e2740                CHAPTER02_LEVEL0102_MID_WIDTH
                0x080e2140                CHAPTER02_LEVEL0102_BACK
                0x080e3d96                CHAPTER02_LEVEL0102_ACTION_HEIGHT
                0x080e2744                CHAPTER02_LEVEL0102_MID
                0x080e2742                CHAPTER02_LEVEL0102_MID_HEIGHT
                0x080e213e                CHAPTER02_LEVEL0102_BACK_HEIGHT
                0x080e3d94                CHAPTER02_LEVEL0102_ACTION_WIDTH
 .data          0x080e8a64     0xa324 ../data/Maps//libMaps.a(CHAPTER02_LEVEL0103.o)
                0x080e8a66                CHAPTER02_LEVEL0103_BACK_HEIGHT
                0x080e906a                CHAPTER02_LEVEL0103_MID_HEIGHT
                0x080eb278                CHAPTER02_LEVEL0103_ACTION
                0x080f0482                CHAPTER02_LEVEL0103_COLLISION_HEIGHT
                0x080f0480                CHAPTER02_LEVEL0103_COLLISION_WIDTH
                0x080eb274                CHAPTER02_LEVEL0103_ACTION_WIDTH
                0x080eb276                CHAPTER02_LEVEL0103_ACTION_HEIGHT
                0x080f0484                CHAPTER02_LEVEL0103_COLLISION
                0x080e9068                CHAPTER02_LEVEL0103_MID_WIDTH
                0x080e8a68                CHAPTER02_LEVEL0103_BACK
                0x080e8a64                CHAPTER02_LEVEL0103_BACK_WIDTH
                0x080e906c                CHAPTER02_LEVEL0103_MID
 .data          0x080f2d88     0x90d8 ../data/Maps//libMaps.a(CHAPTER02_LEVEL0104.o)
                0x080f2d8c                CHAPTER02_LEVEL0104_BACK
                0x080f338c                CHAPTER02_LEVEL0104_MID_WIDTH
                0x080f51f2                CHAPTER02_LEVEL0104_ACTION_HEIGHT
                0x080f2d8a                CHAPTER02_LEVEL0104_BACK_HEIGHT
                0x080f9a3c                CHAPTER02_LEVEL0104_COLLISION
                0x080f51f4                CHAPTER02_LEVEL0104_ACTION
                0x080f3390                CHAPTER02_LEVEL0104_MID
                0x080f2d88                CHAPTER02_LEVEL0104_BACK_WIDTH
                0x080f9a3a                CHAPTER02_LEVEL0104_COLLISION_HEIGHT
                0x080f51f0                CHAPTER02_LEVEL0104_ACTION_WIDTH
                0x080f9a38                CHAPTER02_LEVEL0104_COLLISION_WIDTH
                0x080f338e                CHAPTER02_LEVEL0104_MID_HEIGHT
 .data          0x080fbe60    0x27168 ../data/Maps//libMaps.a(CHAPTER02_LEVEL0105.o)
                0x081030d0                CHAPTER02_LEVEL0105_ACTION_HEIGHT
                0x080fc464                CHAPTER02_LEVEL0105_MID_WIDTH
                0x080fbe64                CHAPTER02_LEVEL0105_BACK
                0x080fc466                CHAPTER02_LEVEL0105_MID_HEIGHT
                0x081030d2                CHAPTER02_LEVEL0105_ACTION
                0x080fbe62                CHAPTER02_LEVEL0105_BACK_HEIGHT
                0x081030ce                CHAPTER02_LEVEL0105_ACTION_WIDTH
                0x080fc468                CHAPTER02_LEVEL0105_MID
                0x08118576                CHAPTER02_LEVEL0105_COLLISION
                0x080fbe60                CHAPTER02_LEVEL0105_BACK_WIDTH
                0x08118574                CHAPTER02_LEVEL0105_COLLISION_HEIGHT
                0x08118572                CHAPTER02_LEVEL0105_COLLISION_WIDTH
 .data          0x08122fc8     0x6a28 ../data/Maps//libMaps.a(CHAPTER02_LEVEL0106.o)
                0x08124c8e                CHAPTER02_LEVEL0106_ACTION_WIDTH
                0x08122fc8                CHAPTER02_LEVEL0106_BACK_WIDTH
                0x08124c92                CHAPTER02_LEVEL0106_ACTION
                0x08128024                CHAPTER02_LEVEL0106_COLLISION_HEIGHT
                0x08124c90                CHAPTER02_LEVEL0106_ACTION_HEIGHT
                0x08122fca                CHAPTER02_LEVEL0106_BACK_HEIGHT
                0x081235ce                CHAPTER02_LEVEL0106_MID_HEIGHT
                0x081235cc                CHAPTER02_LEVEL0106_MID_WIDTH
                0x08122fcc                CHAPTER02_LEVEL0106_BACK
                0x081235d0                CHAPTER02_LEVEL0106_MID
                0x08128026                CHAPTER02_LEVEL0106_COLLISION
                0x08128022                CHAPTER02_LEVEL0106_COLLISION_WIDTH
 .data          0x081299f0     0x9924 ../data/Maps//libMaps.a(CHAPTER02_LEVEL0107.o)
                0x08129ff6                CHAPTER02_LEVEL0107_MID_HEIGHT
                0x08129ff8                CHAPTER02_LEVEL0107_MID
                0x081299f4                CHAPTER02_LEVEL0107_BACK
                0x0812bf0a                CHAPTER02_LEVEL0107_ACTION_HEIGHT
                0x08130c68                CHAPTER02_LEVEL0107_COLLISION
                0x0812bf0c                CHAPTER02_LEVEL0107_ACTION
                0x08129ff4                CHAPTER02_LEVEL0107_MID_WIDTH
                0x08130c64                CHAPTER02_LEVEL0107_COLLISION_WIDTH
                0x081299f2                CHAPTER02_LEVEL0107_BACK_HEIGHT
                0x0812bf08                CHAPTER02_LEVEL0107_ACTION_WIDTH
                0x08130c66                CHAPTER02_LEVEL0107_COLLISION_HEIGHT
                0x081299f0                CHAPTER02_LEVEL0107_BACK_WIDTH
 .data          0x08133314     0x58e4 ../data/Maps//libMaps.a(CHAPTER02_LEVEL0108.o)
                0x081376de                CHAPTER02_LEVEL0108_COLLISION
                0x08133316                CHAPTER02_LEVEL0108_BACK_HEIGHT
                0x0813391c                CHAPTER02_LEVEL0108_MID
                0x08133318                CHAPTER02_LEVEL0108_BACK
                0x08133314                CHAPTER02_LEVEL0108_BACK_WIDTH
                0x08133918                CHAPTER02_LEVEL0108_MID_WIDTH
                0x0813391a                CHAPTER02_LEVEL0108_MID_HEIGHT
                0x081376da                CHAPTER02_LEVEL0108_COLLISION_WIDTH
                0x081376dc                CHAPTER02_LEVEL0108_COLLISION_HEIGHT
                0x08134ca8                CHAPTER02_LEVEL0108_ACTION_HEIGHT
                0x08134caa                CHAPTER02_LEVEL0108_ACTION
                0x08134ca6                CHAPTER02_LEVEL0108_ACTION_WIDTH
 .data          0x08138bf8     0xad94 ../data/Maps//libMaps.a(CHAPTER02_LEVEL0201.o)
                0x08140dca                CHAPTER02_LEVEL0201_COLLISION_HEIGHT
                0x08138bfc                CHAPTER02_LEVEL0201_BACK
                0x0813b648                CHAPTER02_LEVEL0201_ACTION
                0x081393fc                CHAPTER02_LEVEL0201_MID_WIDTH
                0x081393fe                CHAPTER02_LEVEL0201_MID_HEIGHT
                0x08138bf8                CHAPTER02_LEVEL0201_BACK_WIDTH
                0x0813b646                CHAPTER02_LEVEL0201_ACTION_HEIGHT
                0x08140dc8                CHAPTER02_LEVEL0201_COLLISION_WIDTH
                0x08139400                CHAPTER02_LEVEL0201_MID
                0x08140dcc                CHAPTER02_LEVEL0201_COLLISION
                0x08138bfa                CHAPTER02_LEVEL0201_BACK_HEIGHT
                0x0813b644                CHAPTER02_LEVEL0201_ACTION_WIDTH
 .data          0x0814398c    0x1229c ../data/Maps//libMaps.a(CHAPTER02_LEVEL0202.o)
                0x08150ffa                CHAPTER02_LEVEL0202_COLLISION_HEIGHT
                0x0814779e                CHAPTER02_LEVEL0202_ACTION_HEIGHT
                0x08143990                CHAPTER02_LEVEL0202_BACK
                0x08144192                CHAPTER02_LEVEL0202_MID_HEIGHT
                0x08144194                CHAPTER02_LEVEL0202_MID
                0x0814398c                CHAPTER02_LEVEL0202_BACK_WIDTH
                0x08144190                CHAPTER02_LEVEL0202_MID_WIDTH
                0x08150ff8                CHAPTER02_LEVEL0202_COLLISION_WIDTH
                0x08150ffc                CHAPTER02_LEVEL0202_COLLISION
                0x0814779c                CHAPTER02_LEVEL0202_ACTION_WIDTH
                0x0814398e                CHAPTER02_LEVEL0202_BACK_HEIGHT
                0x081477a0                CHAPTER02_LEVEL0202_ACTION
 .data          0x08155c28     0xa790 ../data/Maps//libMaps.a(CHAPTER02_LEVEL0203.o)
                0x081585b4                CHAPTER02_LEVEL0203_ACTION
                0x0815642c                CHAPTER02_LEVEL0203_MID_WIDTH
                0x08155c2a                CHAPTER02_LEVEL0203_BACK_HEIGHT
                0x0815d9b4                CHAPTER02_LEVEL0203_COLLISION_WIDTH
                0x081585b0                CHAPTER02_LEVEL0203_ACTION_WIDTH
                0x0815642e                CHAPTER02_LEVEL0203_MID_HEIGHT
                0x0815d9b8                CHAPTER02_LEVEL0203_COLLISION
                0x081585b2                CHAPTER02_LEVEL0203_ACTION_HEIGHT
                0x08155c2c                CHAPTER02_LEVEL0203_BACK
                0x0815d9b6                CHAPTER02_LEVEL0203_COLLISION_HEIGHT
                0x08155c28                CHAPTER02_LEVEL0203_BACK_WIDTH
                0x08156430                CHAPTER02_LEVEL0203_MID
 .data          0x081603b8     0x6020 ../data/Maps//libMaps.a(CHAPTER02_LEVEL0204.o)
                0x08160bbc                CHAPTER02_LEVEL0204_MID_WIDTH
                0x081603bc                CHAPTER02_LEVEL0204_BACK
                0x08164d54                CHAPTER02_LEVEL0204_COLLISION_WIDTH
                0x081603b8                CHAPTER02_LEVEL0204_BACK_WIDTH
                0x08162052                CHAPTER02_LEVEL0204_ACTION_HEIGHT
                0x081603ba                CHAPTER02_LEVEL0204_BACK_HEIGHT
                0x08160bc0                CHAPTER02_LEVEL0204_MID
                0x08162050                CHAPTER02_LEVEL0204_ACTION_WIDTH
                0x08164d56                CHAPTER02_LEVEL0204_COLLISION_HEIGHT
                0x08162054                CHAPTER02_LEVEL0204_ACTION
                0x08164d58                CHAPTER02_LEVEL0204_COLLISION
                0x08160bbe                CHAPTER02_LEVEL0204_MID_HEIGHT
 .data          0x081663d8     0xc2dc ../data/Maps//libMaps.a(CHAPTER02_LEVEL0301.o)
                0x0816917c                CHAPTER02_LEVEL0301_ACTION_WIDTH
                0x0816f4f4                CHAPTER02_LEVEL0301_COLLISION_WIDTH
                0x081663d8                CHAPTER02_LEVEL0301_BACK_WIDTH
                0x08166bdc                CHAPTER02_LEVEL0301_MID_WIDTH
                0x08169180                CHAPTER02_LEVEL0301_ACTION
                0x0816f4f8                CHAPTER02_LEVEL0301_COLLISION
                0x08166be0                CHAPTER02_LEVEL0301_MID
                0x0816f4f6                CHAPTER02_LEVEL0301_COLLISION_HEIGHT
                0x081663da                CHAPTER02_LEVEL0301_BACK_HEIGHT
                0x0816917e                CHAPTER02_LEVEL0301_ACTION_HEIGHT
                0x08166bde                CHAPTER02_LEVEL0301_MID_HEIGHT
                0x081663dc                CHAPTER02_LEVEL0301_BACK
 .data          0x081726b4     0x6988 ../data/Maps//libMaps.a(CHAPTER02_LEVEL0302.o)
                0x0817772a                CHAPTER02_LEVEL0302_COLLISION
                0x08174500                CHAPTER02_LEVEL0302_ACTION_WIDTH
                0x08172eb8                CHAPTER02_LEVEL0302_MID_WIDTH
                0x081726b6                CHAPTER02_LEVEL0302_BACK_HEIGHT
                0x081726b4                CHAPTER02_LEVEL0302_BACK_WIDTH
                0x08174502                CHAPTER02_LEVEL0302_ACTION_HEIGHT
                0x08172eba                CHAPTER02_LEVEL0302_MID_HEIGHT
                0x08177728                CHAPTER02_LEVEL0302_COLLISION_HEIGHT
                0x081726b8                CHAPTER02_LEVEL0302_BACK
                0x08177726                CHAPTER02_LEVEL0302_COLLISION_WIDTH
                0x08174504                CHAPTER02_LEVEL0302_ACTION
                0x08172ebc                CHAPTER02_LEVEL0302_MID
 .data          0x0817903c     0x907c ../data/Maps//libMaps.a(CHAPTER02_LEVEL0303.o)
                0x0817b60a                CHAPTER02_LEVEL0303_ACTION_WIDTH
                0x0817903e                CHAPTER02_LEVEL0303_BACK_HEIGHT
                0x0817b60c                CHAPTER02_LEVEL0303_ACTION_HEIGHT
                0x0817fd26                CHAPTER02_LEVEL0303_COLLISION_WIDTH
                0x0817b60e                CHAPTER02_LEVEL0303_ACTION
                0x0817fd28                CHAPTER02_LEVEL0303_COLLISION_HEIGHT
                0x08179844                CHAPTER02_LEVEL0303_MID
                0x08179842                CHAPTER02_LEVEL0303_MID_HEIGHT
                0x0817903c                CHAPTER02_LEVEL0303_BACK_WIDTH
                0x0817fd2a                CHAPTER02_LEVEL0303_COLLISION
                0x08179040                CHAPTER02_LEVEL0303_BACK
                0x08179840                CHAPTER02_LEVEL0303_MID_WIDTH
 .data          0x081820b8     0x69e0 ../data/Maps//libMaps.a(CHAPTER02_LEVEL0304.o)
                0x08183f20                CHAPTER02_LEVEL0304_ACTION
                0x08183f1c                CHAPTER02_LEVEL0304_ACTION_WIDTH
                0x081828c0                CHAPTER02_LEVEL0304_MID
                0x081820bc                CHAPTER02_LEVEL0304_BACK
                0x081820b8                CHAPTER02_LEVEL0304_BACK_WIDTH
                0x08183f1e                CHAPTER02_LEVEL0304_ACTION_HEIGHT
                0x081828be                CHAPTER02_LEVEL0304_MID_HEIGHT
                0x081828bc                CHAPTER02_LEVEL0304_MID_WIDTH
                0x0818716c                CHAPTER02_LEVEL0304_COLLISION_WIDTH
                0x0818716e                CHAPTER02_LEVEL0304_COLLISION_HEIGHT
                0x08187170                CHAPTER02_LEVEL0304_COLLISION
                0x081820ba                CHAPTER02_LEVEL0304_BACK_HEIGHT
 .data          0x08188a98     0x6524 ../data/Maps//libMaps.a(CHAPTER02_LEVEL0305.o)
                0x08188a98                CHAPTER02_LEVEL0305_BACK_WIDTH
                0x0818d7fe                CHAPTER02_LEVEL0305_COLLISION_WIDTH
                0x0818a88e                CHAPTER02_LEVEL0305_ACTION
                0x0818d800                CHAPTER02_LEVEL0305_COLLISION_HEIGHT
                0x0818a88a                CHAPTER02_LEVEL0305_ACTION_WIDTH
                0x08188a9a                CHAPTER02_LEVEL0305_BACK_HEIGHT
                0x081892a0                CHAPTER02_LEVEL0305_MID
                0x0818d802                CHAPTER02_LEVEL0305_COLLISION
                0x08188a9c                CHAPTER02_LEVEL0305_BACK
                0x0818929e                CHAPTER02_LEVEL0305_MID_HEIGHT
                0x0818929c                CHAPTER02_LEVEL0305_MID_WIDTH
                0x0818a88c                CHAPTER02_LEVEL0305_ACTION_HEIGHT
 .data          0x0818efbc     0x3ed0 ../data/Maps//libMaps.a(CHAPTER02_LEVEL0306.o)
                0x0819212e                CHAPTER02_LEVEL0306_COLLISION
                0x0818efbc                CHAPTER02_LEVEL0306_BACK_WIDTH
                0x0818f7c0                CHAPTER02_LEVEL0306_MID_WIDTH
                0x0819066a                CHAPTER02_LEVEL0306_ACTION_WIDTH
                0x0819066e                CHAPTER02_LEVEL0306_ACTION
                0x0819212c                CHAPTER02_LEVEL0306_COLLISION_HEIGHT
                0x0819212a                CHAPTER02_LEVEL0306_COLLISION_WIDTH
                0x0818f7c4                CHAPTER02_LEVEL0306_MID
                0x0819066c                CHAPTER02_LEVEL0306_ACTION_HEIGHT
                0x0818efbe                CHAPTER02_LEVEL0306_BACK_HEIGHT
                0x0818f7c2                CHAPTER02_LEVEL0306_MID_HEIGHT
                0x0818efc0                CHAPTER02_LEVEL0306_BACK
 .data          0x08192e8c     0xb8f4 ../data/Maps//libMaps.a(CHAPTER02_LEVEL0401.o)
                0x08195ad6                CHAPTER02_LEVEL0401_ACTION_WIDTH
                0x08193690                CHAPTER02_LEVEL0401_MID_WIDTH
                0x0819b89a                CHAPTER02_LEVEL0401_COLLISION_WIDTH
                0x08195ada                CHAPTER02_LEVEL0401_ACTION
                0x0819b89c                CHAPTER02_LEVEL0401_COLLISION_HEIGHT
                0x08192e8c                CHAPTER02_LEVEL0401_BACK_WIDTH
                0x0819b89e                CHAPTER02_LEVEL0401_COLLISION
                0x08195ad8                CHAPTER02_LEVEL0401_ACTION_HEIGHT
                0x08193694                CHAPTER02_LEVEL0401_MID
                0x08193692                CHAPTER02_LEVEL0401_MID_HEIGHT
                0x08192e90                CHAPTER02_LEVEL0401_BACK
                0x08192e8e                CHAPTER02_LEVEL0401_BACK_HEIGHT
 .data          0x0819e780     0xa238 ../data/Maps//libMaps.a(CHAPTER02_LEVEL0402.o)
                0x081a0fd0                CHAPTER02_LEVEL0402_ACTION_HEIGHT
                0x081a0fce                CHAPTER02_LEVEL0402_ACTION_WIDTH
                0x0819ef88                CHAPTER02_LEVEL0402_MID
                0x0819e784                CHAPTER02_LEVEL0402_BACK
                0x0819e780                CHAPTER02_LEVEL0402_BACK_WIDTH
                0x081a0fd2                CHAPTER02_LEVEL0402_ACTION
                0x0819e782                CHAPTER02_LEVEL0402_BACK_HEIGHT
                0x0819ef84                CHAPTER02_LEVEL0402_MID_WIDTH
                0x081a6112                CHAPTER02_LEVEL0402_COLLISION_WIDTH
                0x081a6116                CHAPTER02_LEVEL0402_COLLISION
                0x081a6114                CHAPTER02_LEVEL0402_COLLISION_HEIGHT
                0x0819ef86                CHAPTER02_LEVEL0402_MID_HEIGHT
 .data          0x081a89b8    0x15050 ../data/Maps//libMaps.a(CHAPTER02_LEVEL0403.o)
                0x081acf28                CHAPTER02_LEVEL0403_ACTION_WIDTH
                0x081a89bc                CHAPTER02_LEVEL0403_BACK
                0x081a89ba                CHAPTER02_LEVEL0403_BACK_HEIGHT
                0x081b8110                CHAPTER02_LEVEL0403_COLLISION_WIDTH
                0x081a91be                CHAPTER02_LEVEL0403_MID_HEIGHT
                0x081a91c0                CHAPTER02_LEVEL0403_MID
                0x081a91bc                CHAPTER02_LEVEL0403_MID_WIDTH
                0x081acf2a                CHAPTER02_LEVEL0403_ACTION_HEIGHT
                0x081acf2c                CHAPTER02_LEVEL0403_ACTION
                0x081a89b8                CHAPTER02_LEVEL0403_BACK_WIDTH
                0x081b8112                CHAPTER02_LEVEL0403_COLLISION_HEIGHT
                0x081b8114                CHAPTER02_LEVEL0403_COLLISION
 .data          0x081bda08     0xa1a8 ../data/Maps//libMaps.a(CHAPTER02_LEVEL0404.o)
                0x081c5314                CHAPTER02_LEVEL0404_COLLISION
                0x081c5312                CHAPTER02_LEVEL0404_COLLISION_HEIGHT
                0x081bda0a                CHAPTER02_LEVEL0404_BACK_HEIGHT
                0x081bda08                CHAPTER02_LEVEL0404_BACK_WIDTH
                0x081c01d8                CHAPTER02_LEVEL0404_ACTION_HEIGHT
                0x081be20e                CHAPTER02_LEVEL0404_MID_HEIGHT
                0x081be20c                CHAPTER02_LEVEL0404_MID_WIDTH
                0x081be210                CHAPTER02_LEVEL0404_MID
                0x081c01da                CHAPTER02_LEVEL0404_ACTION
                0x081c01d6                CHAPTER02_LEVEL0404_ACTION_WIDTH
                0x081c5310                CHAPTER02_LEVEL0404_COLLISION_WIDTH
                0x081bda0c                CHAPTER02_LEVEL0404_BACK
 .data          0x081c7bb0     0xd968 ../data/Maps//libMaps.a(CHAPTER02_LEVEL0405.o)
                0x081cad80                CHAPTER02_LEVEL0405_ACTION
                0x081c83b8                CHAPTER02_LEVEL0405_MID
                0x081cad7e                CHAPTER02_LEVEL0405_ACTION_HEIGHT
                0x081cad7c                CHAPTER02_LEVEL0405_ACTION_WIDTH
                0x081c7bb4                CHAPTER02_LEVEL0405_BACK
                0x081c7bb0                CHAPTER02_LEVEL0405_BACK_WIDTH
                0x081d1d3c                CHAPTER02_LEVEL0405_COLLISION
                0x081c83b6                CHAPTER02_LEVEL0405_MID_HEIGHT
                0x081c7bb2                CHAPTER02_LEVEL0405_BACK_HEIGHT
                0x081d1d38                CHAPTER02_LEVEL0405_COLLISION_WIDTH
                0x081c83b4                CHAPTER02_LEVEL0405_MID_WIDTH
                0x081d1d3a                CHAPTER02_LEVEL0405_COLLISION_HEIGHT
 .data          0x081d5518     0x2790 ../data/Maps//libMaps.a(CHAPTER03_LEVEL0101.o)
                0x081d7552                CHAPTER03_LEVEL0101_COLLISION_HEIGHT
                0x081d551a                CHAPTER03_LEVEL0101_BACK_HEIGHT
                0x081d7554                CHAPTER03_LEVEL0101_COLLISION
                0x081d66aa                CHAPTER03_LEVEL0101_ACTION
                0x081d5d1c                CHAPTER03_LEVEL0101_MID_WIDTH
                0x081d5d20                CHAPTER03_LEVEL0101_MID
                0x081d7550                CHAPTER03_LEVEL0101_COLLISION_WIDTH
                0x081d551c                CHAPTER03_LEVEL0101_BACK
                0x081d66a6                CHAPTER03_LEVEL0101_ACTION_WIDTH
                0x081d66a8                CHAPTER03_LEVEL0101_ACTION_HEIGHT
                0x081d5d1e                CHAPTER03_LEVEL0101_MID_HEIGHT
                0x081d5518                CHAPTER03_LEVEL0101_BACK_WIDTH
 .data          0x081d7ca8     0x15d0 ../data/Maps//libMaps.a(CHAPTER03_LEVEL0102.o)
                0x081d84b0                CHAPTER03_LEVEL0102_MID
                0x081d84ae                CHAPTER03_LEVEL0102_MID_HEIGHT
                0x081d8a32                CHAPTER03_LEVEL0102_ACTION_HEIGHT
                0x081d84ac                CHAPTER03_LEVEL0102_MID_WIDTH
                0x081d8fb6                CHAPTER03_LEVEL0102_COLLISION_HEIGHT
                0x081d7cac                CHAPTER03_LEVEL0102_BACK
                0x081d8a30                CHAPTER03_LEVEL0102_ACTION_WIDTH
                0x081d8a34                CHAPTER03_LEVEL0102_ACTION
                0x081d7ca8                CHAPTER03_LEVEL0102_BACK_WIDTH
                0x081d8fb8                CHAPTER03_LEVEL0102_COLLISION
                0x081d7caa                CHAPTER03_LEVEL0102_BACK_HEIGHT
                0x081d8fb4                CHAPTER03_LEVEL0102_COLLISION_WIDTH
 .data          0x081d9278     0x8128 ../data/Maps//libMaps.a(CHAPTER03_LEVEL0103.o)
                0x081db4c0                CHAPTER03_LEVEL0103_ACTION
                0x081df3fc                CHAPTER03_LEVEL0103_COLLISION_WIDTH
                0x081d9a80                CHAPTER03_LEVEL0103_MID
                0x081db4be                CHAPTER03_LEVEL0103_ACTION_HEIGHT
                0x081df3fe                CHAPTER03_LEVEL0103_COLLISION_HEIGHT
                0x081d927a                CHAPTER03_LEVEL0103_BACK_HEIGHT
                0x081db4bc                CHAPTER03_LEVEL0103_ACTION_WIDTH
                0x081d9a7c                CHAPTER03_LEVEL0103_MID_WIDTH
                0x081d927c                CHAPTER03_LEVEL0103_BACK
                0x081d9a7e                CHAPTER03_LEVEL0103_MID_HEIGHT
                0x081d9278                CHAPTER03_LEVEL0103_BACK_WIDTH
                0x081df400                CHAPTER03_LEVEL0103_COLLISION
 .data          0x081e13a0     0x635c ../data/Maps//libMaps.a(CHAPTER03_LEVEL0104.o)
                0x081e30ea                CHAPTER03_LEVEL0104_ACTION_HEIGHT
                0x081e1ba4                CHAPTER03_LEVEL0104_MID_WIDTH
                0x081e1ba8                CHAPTER03_LEVEL0104_MID
                0x081e13a0                CHAPTER03_LEVEL0104_BACK_WIDTH
                0x081e5fa0                CHAPTER03_LEVEL0104_COLLISION_HEIGHT
                0x081e13a2                CHAPTER03_LEVEL0104_BACK_HEIGHT
                0x081e5f9e                CHAPTER03_LEVEL0104_COLLISION_WIDTH
                0x081e13a4                CHAPTER03_LEVEL0104_BACK
                0x081e5fa2                CHAPTER03_LEVEL0104_COLLISION
                0x081e30ec                CHAPTER03_LEVEL0104_ACTION
                0x081e30e8                CHAPTER03_LEVEL0104_ACTION_WIDTH
                0x081e1ba6                CHAPTER03_LEVEL0104_MID_HEIGHT
 .data          0x081e76fc     0x5e58 ../data/Maps//libMaps.a(CHAPTER03_LEVEL0105.o)
                0x081ebf48                CHAPTER03_LEVEL0105_COLLISION_HEIGHT
                0x081e7f02                CHAPTER03_LEVEL0105_MID_HEIGHT
                0x081e76fe                CHAPTER03_LEVEL0105_BACK_HEIGHT
                0x081e76fc                CHAPTER03_LEVEL0105_BACK_WIDTH
                0x081ebf4a                CHAPTER03_LEVEL0105_COLLISION
                0x081e9336                CHAPTER03_LEVEL0105_ACTION
                0x081e7f04                CHAPTER03_LEVEL0105_MID
                0x081e9332                CHAPTER03_LEVEL0105_ACTION_WIDTH
                0x081ebf46                CHAPTER03_LEVEL0105_COLLISION_WIDTH
                0x081e9334                CHAPTER03_LEVEL0105_ACTION_HEIGHT
                0x081e7700                CHAPTER03_LEVEL0105_BACK
                0x081e7f00                CHAPTER03_LEVEL0105_MID_WIDTH
 .data          0x081ed554     0x57a8 ../data/Maps//libMaps.a(CHAPTER03_LEVEL0106.o)
                0x081edd58                CHAPTER03_LEVEL0106_MID_WIDTH
                0x081ed558                CHAPTER03_LEVEL0106_BACK
                0x081ef01c                CHAPTER03_LEVEL0106_ACTION_WIDTH
                0x081ed556                CHAPTER03_LEVEL0106_BACK_HEIGHT
                0x081ed554                CHAPTER03_LEVEL0106_BACK_WIDTH
                0x081f18b0                CHAPTER03_LEVEL0106_COLLISION_WIDTH
                0x081ef01e                CHAPTER03_LEVEL0106_ACTION_HEIGHT
                0x081edd5a                CHAPTER03_LEVEL0106_MID_HEIGHT
                0x081f18b2                CHAPTER03_LEVEL0106_COLLISION_HEIGHT
                0x081edd5c                CHAPTER03_LEVEL0106_MID
                0x081ef020                CHAPTER03_LEVEL0106_ACTION
                0x081f18b4                CHAPTER03_LEVEL0106_COLLISION
 .data          0x081f2cfc     0x5088 ../data/Maps//libMaps.a(CHAPTER03_LEVEL0107.o)
                0x081f6b36                CHAPTER03_LEVEL0107_COLLISION_WIDTH
                0x081f6b38                CHAPTER03_LEVEL0107_COLLISION_HEIGHT
                0x081f2d00                CHAPTER03_LEVEL0107_BACK
                0x081f6b3a                CHAPTER03_LEVEL0107_COLLISION
                0x081f46a6                CHAPTER03_LEVEL0107_ACTION
                0x081f2cfc                CHAPTER03_LEVEL0107_BACK_WIDTH
                0x081f46a2                CHAPTER03_LEVEL0107_ACTION_WIDTH
                0x081f46a4                CHAPTER03_LEVEL0107_ACTION_HEIGHT
                0x081f2cfe                CHAPTER03_LEVEL0107_BACK_HEIGHT
                0x081f3504                CHAPTER03_LEVEL0107_MID
                0x081f3502                CHAPTER03_LEVEL0107_MID_HEIGHT
                0x081f3500                CHAPTER03_LEVEL0107_MID_WIDTH
 .data          0x081f7d84     0xa050 ../data/Maps//libMaps.a(CHAPTER03_LEVEL0201.o)
                0x081fa5ce                CHAPTER03_LEVEL0201_ACTION_HEIGHT
                0x081f858c                CHAPTER03_LEVEL0201_MID
                0x081fa5d0                CHAPTER03_LEVEL0201_ACTION
                0x081ff5d0                CHAPTER03_LEVEL0201_COLLISION_WIDTH
                0x081f7d86                CHAPTER03_LEVEL0201_BACK_HEIGHT
                0x081f858a                CHAPTER03_LEVEL0201_MID_HEIGHT
                0x081ff5d2                CHAPTER03_LEVEL0201_COLLISION_HEIGHT
                0x081f7d88                CHAPTER03_LEVEL0201_BACK
                0x081f7d84                CHAPTER03_LEVEL0201_BACK_WIDTH
                0x081ff5d4                CHAPTER03_LEVEL0201_COLLISION
                0x081f8588                CHAPTER03_LEVEL0201_MID_WIDTH
                0x081fa5cc                CHAPTER03_LEVEL0201_ACTION_WIDTH
 .data          0x08201dd4     0xb2ac ../data/Maps//libMaps.a(CHAPTER03_LEVEL0202.o)
                0x08201dd4                CHAPTER03_LEVEL0202_BACK_WIDTH
                0x08204978                CHAPTER03_LEVEL0202_ACTION_WIDTH
                0x08201dd8                CHAPTER03_LEVEL0202_BACK
                0x0820497c                CHAPTER03_LEVEL0202_ACTION
                0x0820a37e                CHAPTER03_LEVEL0202_COLLISION_HEIGHT
                0x082025da                CHAPTER03_LEVEL0202_MID_HEIGHT
                0x082025d8                CHAPTER03_LEVEL0202_MID_WIDTH
                0x082025dc                CHAPTER03_LEVEL0202_MID
                0x0820497a                CHAPTER03_LEVEL0202_ACTION_HEIGHT
                0x0820a37c                CHAPTER03_LEVEL0202_COLLISION_WIDTH
                0x0820a380                CHAPTER03_LEVEL0202_COLLISION
                0x08201dd6                CHAPTER03_LEVEL0202_BACK_HEIGHT
 .data          0x0820d080     0x9ca4 ../data/Maps//libMaps.a(CHAPTER03_LEVEL0203.o)
                0x0820d888                CHAPTER03_LEVEL0203_MID
                0x0820f81e                CHAPTER03_LEVEL0203_ACTION_HEIGHT
                0x0820d886                CHAPTER03_LEVEL0203_MID_HEIGHT
                0x0820f81c                CHAPTER03_LEVEL0203_ACTION_WIDTH
                0x0820d084                CHAPTER03_LEVEL0203_BACK
                0x0820f820                CHAPTER03_LEVEL0203_ACTION
                0x08214624                CHAPTER03_LEVEL0203_COLLISION
                0x08214622                CHAPTER03_LEVEL0203_COLLISION_HEIGHT
                0x0820d080                CHAPTER03_LEVEL0203_BACK_WIDTH
                0x0820d082                CHAPTER03_LEVEL0203_BACK_HEIGHT
                0x0820d884                CHAPTER03_LEVEL0203_MID_WIDTH
                0x08214620                CHAPTER03_LEVEL0203_COLLISION_WIDTH
 .data          0x08216d24     0xbdb0 ../data/Maps//libMaps.a(CHAPTER03_LEVEL0204.o)
                0x08219ad0                CHAPTER03_LEVEL0204_ACTION
                0x08216d28                CHAPTER03_LEVEL0204_BACK
                0x0821752c                CHAPTER03_LEVEL0204_MID
                0x08219acc                CHAPTER03_LEVEL0204_ACTION_WIDTH
                0x0821fad4                CHAPTER03_LEVEL0204_COLLISION
                0x08216d24                CHAPTER03_LEVEL0204_BACK_WIDTH
                0x0821fad2                CHAPTER03_LEVEL0204_COLLISION_HEIGHT
                0x08216d26                CHAPTER03_LEVEL0204_BACK_HEIGHT
                0x0821752a                CHAPTER03_LEVEL0204_MID_HEIGHT
                0x0821fad0                CHAPTER03_LEVEL0204_COLLISION_WIDTH
                0x08217528                CHAPTER03_LEVEL0204_MID_WIDTH
                0x08219ace                CHAPTER03_LEVEL0204_ACTION_HEIGHT
 .data          0x08222ad4     0xab54 ../data/Maps//libMaps.a(CHAPTER03_LEVEL0205.o)
                0x08225522                CHAPTER03_LEVEL0205_ACTION_HEIGHT
                0x08222ad6                CHAPTER03_LEVEL0205_BACK_HEIGHT
                0x08225520                CHAPTER03_LEVEL0205_ACTION_WIDTH
                0x082232dc                CHAPTER03_LEVEL0205_MID
                0x08222ad8                CHAPTER03_LEVEL0205_BACK
                0x0822ab28                CHAPTER03_LEVEL0205_COLLISION
                0x082232d8                CHAPTER03_LEVEL0205_MID_WIDTH
                0x082232da                CHAPTER03_LEVEL0205_MID_HEIGHT
                0x0822ab24                CHAPTER03_LEVEL0205_COLLISION_WIDTH
                0x08222ad4                CHAPTER03_LEVEL0205_BACK_WIDTH
                0x08225524                CHAPTER03_LEVEL0205_ACTION
                0x0822ab26                CHAPTER03_LEVEL0205_COLLISION_HEIGHT
 .data          0x0822d628     0x7e30 ../data/Maps//libMaps.a(CHAPTER03_LEVEL0206.o)
                0x0822d62a                CHAPTER03_LEVEL0206_BACK_HEIGHT
                0x0822d62c                CHAPTER03_LEVEL0206_BACK
                0x0822d628                CHAPTER03_LEVEL0206_BACK_WIDTH
                0x0822f80e                CHAPTER03_LEVEL0206_ACTION_WIDTH
                0x0822de30                CHAPTER03_LEVEL0206_MID
                0x0822de2c                CHAPTER03_LEVEL0206_MID_WIDTH
                0x0822f812                CHAPTER03_LEVEL0206_ACTION
                0x0822f810                CHAPTER03_LEVEL0206_ACTION_HEIGHT
                0x08233596                CHAPTER03_LEVEL0206_COLLISION
                0x08233594                CHAPTER03_LEVEL0206_COLLISION_HEIGHT
                0x0822de2e                CHAPTER03_LEVEL0206_MID_HEIGHT
                0x08233592                CHAPTER03_LEVEL0206_COLLISION_WIDTH
 .data          0x08235458     0xcef8 ../data/Maps//libMaps.a(CHAPTER03_LEVEL0207.o)
                0x08238506                CHAPTER03_LEVEL0207_ACTION_WIDTH
                0x0823ee8a                CHAPTER03_LEVEL0207_COLLISION_WIDTH
                0x08235458                CHAPTER03_LEVEL0207_BACK_WIDTH
                0x08235c5e                CHAPTER03_LEVEL0207_MID_HEIGHT
                0x0823ee8c                CHAPTER03_LEVEL0207_COLLISION_HEIGHT
                0x0823ee8e                CHAPTER03_LEVEL0207_COLLISION
                0x08235c60                CHAPTER03_LEVEL0207_MID
                0x0823545c                CHAPTER03_LEVEL0207_BACK
                0x0823850a                CHAPTER03_LEVEL0207_ACTION
                0x08238508                CHAPTER03_LEVEL0207_ACTION_HEIGHT
                0x0823545a                CHAPTER03_LEVEL0207_BACK_HEIGHT
                0x08235c5c                CHAPTER03_LEVEL0207_MID_WIDTH
 .data          0x08242350     0x954c ../data/Maps//libMaps.a(CHAPTER03_LEVEL0301.o)
                0x08242354                CHAPTER03_LEVEL0301_BACK
                0x08242b54                CHAPTER03_LEVEL0301_MID_WIDTH
                0x08242b58                CHAPTER03_LEVEL0301_MID
                0x08242350                CHAPTER03_LEVEL0301_BACK_WIDTH
                0x0824939a                CHAPTER03_LEVEL0301_COLLISION_HEIGHT
                0x08244996                CHAPTER03_LEVEL0301_ACTION_HEIGHT
                0x08249398                CHAPTER03_LEVEL0301_COLLISION_WIDTH
                0x08244998                CHAPTER03_LEVEL0301_ACTION
                0x08242b56                CHAPTER03_LEVEL0301_MID_HEIGHT
                0x08242352                CHAPTER03_LEVEL0301_BACK_HEIGHT
                0x08244994                CHAPTER03_LEVEL0301_ACTION_WIDTH
                0x0824939c                CHAPTER03_LEVEL0301_COLLISION
 .data          0x0824b89c     0x954c ../data/Maps//libMaps.a(CHAPTER03_LEVEL0302.o)
                0x0824c0a4                CHAPTER03_LEVEL0302_MID
                0x0824b8a0                CHAPTER03_LEVEL0302_BACK
                0x0824b89c                CHAPTER03_LEVEL0302_BACK_WIDTH
                0x0824b89e                CHAPTER03_LEVEL0302_BACK_HEIGHT
                0x082528e4                CHAPTER03_LEVEL0302_COLLISION_WIDTH
                0x0824dee4                CHAPTER03_LEVEL0302_ACTION
                0x082528e8                CHAPTER03_LEVEL0302_COLLISION
                0x0824dee0                CHAPTER03_LEVEL0302_ACTION_WIDTH
                0x082528e6                CHAPTER03_LEVEL0302_COLLISION_HEIGHT
                0x0824c0a2                CHAPTER03_LEVEL0302_MID_HEIGHT
                0x0824c0a0                CHAPTER03_LEVEL0302_MID_WIDTH
                0x0824dee2                CHAPTER03_LEVEL0302_ACTION_HEIGHT
 .data          0x08254de8     0x6590 ../data/Maps//libMaps.a(CHAPTER03_LEVEL0303.o)
                0x082555ee                CHAPTER03_LEVEL0303_MID_HEIGHT
                0x08259b78                CHAPTER03_LEVEL0303_COLLISION
                0x08259b76                CHAPTER03_LEVEL0303_COLLISION_HEIGHT
                0x08254dec                CHAPTER03_LEVEL0303_BACK
                0x08254dea                CHAPTER03_LEVEL0303_BACK_HEIGHT
                0x082555f0                CHAPTER03_LEVEL0303_MID
                0x08256b70                CHAPTER03_LEVEL0303_ACTION_WIDTH
                0x08256b74                CHAPTER03_LEVEL0303_ACTION
                0x082555ec                CHAPTER03_LEVEL0303_MID_WIDTH
                0x08256b72                CHAPTER03_LEVEL0303_ACTION_HEIGHT
                0x08254de8                CHAPTER03_LEVEL0303_BACK_WIDTH
                0x08259b74                CHAPTER03_LEVEL0303_COLLISION_WIDTH
 .data          0x0825b378     0x3428 ../data/Maps//libMaps.a(CHAPTER03_LEVEL0304.o)
                0x0825bb80                CHAPTER03_LEVEL0304_MID
                0x0825c78c                CHAPTER03_LEVEL0304_ACTION
                0x0825c788                CHAPTER03_LEVEL0304_ACTION_WIDTH
                0x0825dcf0                CHAPTER03_LEVEL0304_COLLISION
                0x0825dcec                CHAPTER03_LEVEL0304_COLLISION_WIDTH
                0x0825b37a                CHAPTER03_LEVEL0304_BACK_HEIGHT
                0x0825b378                CHAPTER03_LEVEL0304_BACK_WIDTH
                0x0825bb7e                CHAPTER03_LEVEL0304_MID_HEIGHT
                0x0825c78a                CHAPTER03_LEVEL0304_ACTION_HEIGHT
                0x0825bb7c                CHAPTER03_LEVEL0304_MID_WIDTH
                0x0825dcee                CHAPTER03_LEVEL0304_COLLISION_HEIGHT
                0x0825b37c                CHAPTER03_LEVEL0304_BACK
 .data          0x0825e7a0     0x98f8 ../data/Maps//libMaps.a(CHAPTER03_LEVEL0305.o)
                0x08260e90                CHAPTER03_LEVEL0305_ACTION_WIDTH
                0x08265a98                CHAPTER03_LEVEL0305_COLLISION
                0x08265a96                CHAPTER03_LEVEL0305_COLLISION_HEIGHT
                0x0825efa8                CHAPTER03_LEVEL0305_MID
                0x0825efa4                CHAPTER03_LEVEL0305_MID_WIDTH
                0x0825efa6                CHAPTER03_LEVEL0305_MID_HEIGHT
                0x0825e7a4                CHAPTER03_LEVEL0305_BACK
                0x08260e94                CHAPTER03_LEVEL0305_ACTION
                0x08260e92                CHAPTER03_LEVEL0305_ACTION_HEIGHT
                0x0825e7a0                CHAPTER03_LEVEL0305_BACK_WIDTH
                0x0825e7a2                CHAPTER03_LEVEL0305_BACK_HEIGHT
                0x08265a94                CHAPTER03_LEVEL0305_COLLISION_WIDTH
 .data          0x08268098     0xa4bc ../data/Maps//libMaps.a(CHAPTER03_LEVEL0306.o)
                0x0826fc12                CHAPTER03_LEVEL0306_COLLISION_HEIGHT
                0x0826889e                CHAPTER03_LEVEL0306_MID_HEIGHT
                0x0826889c                CHAPTER03_LEVEL0306_MID_WIDTH
                0x08268098                CHAPTER03_LEVEL0306_BACK_WIDTH
                0x082688a0                CHAPTER03_LEVEL0306_MID
                0x0826fc14                CHAPTER03_LEVEL0306_COLLISION
                0x0826fc10                CHAPTER03_LEVEL0306_COLLISION_WIDTH
                0x0826a98c                CHAPTER03_LEVEL0306_ACTION_WIDTH
                0x0826a990                CHAPTER03_LEVEL0306_ACTION
                0x0826a98e                CHAPTER03_LEVEL0306_ACTION_HEIGHT
                0x0826809a                CHAPTER03_LEVEL0306_BACK_HEIGHT
                0x0826809c                CHAPTER03_LEVEL0306_BACK
 .data          0x08272554     0x6c48 ../data/Maps//libMaps.a(CHAPTER03_LEVEL0401.o)
                0x08272556                CHAPTER03_LEVEL0401_BACK_HEIGHT
                0x08272558                CHAPTER03_LEVEL0401_BACK
                0x08272d5c                CHAPTER03_LEVEL0401_MID
                0x082744d0                CHAPTER03_LEVEL0401_ACTION
                0x08277802                CHAPTER03_LEVEL0401_COLLISION_HEIGHT
                0x08272d58                CHAPTER03_LEVEL0401_MID_WIDTH
                0x08277800                CHAPTER03_LEVEL0401_COLLISION_WIDTH
                0x082744ce                CHAPTER03_LEVEL0401_ACTION_HEIGHT
                0x08277804                CHAPTER03_LEVEL0401_COLLISION
                0x08272554                CHAPTER03_LEVEL0401_BACK_WIDTH
                0x082744cc                CHAPTER03_LEVEL0401_ACTION_WIDTH
                0x08272d5a                CHAPTER03_LEVEL0401_MID_HEIGHT
 .data          0x0827919c     0x218c ../data/Maps//libMaps.a(CHAPTER03_LEVEL0402.o)
                0x082791a0                CHAPTER03_LEVEL0402_BACK
                0x082799a2                CHAPTER03_LEVEL0402_MID_HEIGHT
                0x0827ad66                CHAPTER03_LEVEL0402_COLLISION
                0x0827a1e0                CHAPTER03_LEVEL0402_ACTION_HEIGHT
                0x0827ad62                CHAPTER03_LEVEL0402_COLLISION_WIDTH
                0x0827919c                CHAPTER03_LEVEL0402_BACK_WIDTH
                0x0827a1de                CHAPTER03_LEVEL0402_ACTION_WIDTH
                0x082799a4                CHAPTER03_LEVEL0402_MID
                0x082799a0                CHAPTER03_LEVEL0402_MID_WIDTH
                0x0827a1e2                CHAPTER03_LEVEL0402_ACTION
                0x0827919e                CHAPTER03_LEVEL0402_BACK_HEIGHT
                0x0827ad64                CHAPTER03_LEVEL0402_COLLISION_HEIGHT
 .data          0x0827b328     0x8bc8 ../data/Maps//libMaps.a(CHAPTER03_LEVEL0403.o)
                0x0827b328                CHAPTER03_LEVEL0403_BACK_WIDTH
                0x0827d7d2                CHAPTER03_LEVEL0403_ACTION
                0x08281c8e                CHAPTER03_LEVEL0403_COLLISION_WIDTH
                0x0827d7d0                CHAPTER03_LEVEL0403_ACTION_HEIGHT
                0x0827b32c                CHAPTER03_LEVEL0403_BACK
                0x08281c90                CHAPTER03_LEVEL0403_COLLISION_HEIGHT
                0x0827bb2c                CHAPTER03_LEVEL0403_MID_WIDTH
                0x08281c92                CHAPTER03_LEVEL0403_COLLISION
                0x0827b32a                CHAPTER03_LEVEL0403_BACK_HEIGHT
                0x0827bb30                CHAPTER03_LEVEL0403_MID
                0x0827bb2e                CHAPTER03_LEVEL0403_MID_HEIGHT
                0x0827d7ce                CHAPTER03_LEVEL0403_ACTION_WIDTH
 .data          0x08283ef0     0x6718 ../data/Maps//libMaps.a(CHAPTER03_LEVEL0404.o)
                0x082846f6                CHAPTER03_LEVEL0404_MID_HEIGHT
                0x082846f4                CHAPTER03_LEVEL0404_MID_WIDTH
                0x08285ddc                CHAPTER03_LEVEL0404_ACTION_HEIGHT
                0x08288df6                CHAPTER03_LEVEL0404_COLLISION_WIDTH
                0x08283ef4                CHAPTER03_LEVEL0404_BACK
                0x08283ef0                CHAPTER03_LEVEL0404_BACK_WIDTH
                0x08288dfa                CHAPTER03_LEVEL0404_COLLISION
                0x082846f8                CHAPTER03_LEVEL0404_MID
                0x08285dda                CHAPTER03_LEVEL0404_ACTION_WIDTH
                0x08285dde                CHAPTER03_LEVEL0404_ACTION
                0x08288df8                CHAPTER03_LEVEL0404_COLLISION_HEIGHT
                0x08283ef2                CHAPTER03_LEVEL0404_BACK_HEIGHT
 .data          0x0828a608     0x6f50 ../data/Maps//libMaps.a(CHAPTER03_LEVEL0405.o)
                0x0828fa9e                CHAPTER03_LEVEL0405_COLLISION_WIDTH
                0x0828ae0c                CHAPTER03_LEVEL0405_MID_WIDTH
                0x0828a60c                CHAPTER03_LEVEL0405_BACK
                0x0828a608                CHAPTER03_LEVEL0405_BACK_WIDTH
                0x0828ae0e                CHAPTER03_LEVEL0405_MID_HEIGHT
                0x0828faa2                CHAPTER03_LEVEL0405_COLLISION
                0x0828c530                CHAPTER03_LEVEL0405_ACTION_WIDTH
                0x0828faa0                CHAPTER03_LEVEL0405_COLLISION_HEIGHT
                0x0828c532                CHAPTER03_LEVEL0405_ACTION_HEIGHT
                0x0828c534                CHAPTER03_LEVEL0405_ACTION
                0x0828ae10                CHAPTER03_LEVEL0405_MID
                0x0828a60a                CHAPTER03_LEVEL0405_BACK_HEIGHT
 .data          0x08291558     0x6e8c ../data/Maps//libMaps.a(CHAPTER03_LEVEL0406.o)
                0x08291d5c                CHAPTER03_LEVEL0406_MID_WIDTH
                0x08291d5e                CHAPTER03_LEVEL0406_MID_HEIGHT
                0x0829155c                CHAPTER03_LEVEL0406_BACK
                0x08291558                CHAPTER03_LEVEL0406_BACK_WIDTH
                0x0829697a                CHAPTER03_LEVEL0406_COLLISION
                0x0829349e                CHAPTER03_LEVEL0406_ACTION_WIDTH
                0x08296978                CHAPTER03_LEVEL0406_COLLISION_HEIGHT
                0x082934a2                CHAPTER03_LEVEL0406_ACTION
                0x08296976                CHAPTER03_LEVEL0406_COLLISION_WIDTH
                0x0829155a                CHAPTER03_LEVEL0406_BACK_HEIGHT
                0x08291d60                CHAPTER03_LEVEL0406_MID
                0x082934a0                CHAPTER03_LEVEL0406_ACTION_HEIGHT
 .data          0x082983e4    0x10ee4 ../data/Maps//libMaps.a(CHAPTER04_LEVEL0101.o)
                0x082983e4                CHAPTER04_LEVEL0101_BACK_WIDTH
                0x0829be6a                CHAPTER04_LEVEL0101_ACTION
                0x08298bec                CHAPTER04_LEVEL0101_MID
                0x082a4bfc                CHAPTER04_LEVEL0101_COLLISION_HEIGHT
                0x082983e6                CHAPTER04_LEVEL0101_BACK_HEIGHT
                0x08298bea                CHAPTER04_LEVEL0101_MID_HEIGHT
                0x082a4bfe                CHAPTER04_LEVEL0101_COLLISION
                0x08298be8                CHAPTER04_LEVEL0101_MID_WIDTH
                0x0829be68                CHAPTER04_LEVEL0101_ACTION_HEIGHT
                0x0829be66                CHAPTER04_LEVEL0101_ACTION_WIDTH
                0x082983e8                CHAPTER04_LEVEL0101_BACK
                0x082a4bfa                CHAPTER04_LEVEL0101_COLLISION_WIDTH
 .data          0x082a92c8    0x1964c ../data/Maps//libMaps.a(CHAPTER04_LEVEL0102.o)
                0x082bbcca                CHAPTER04_LEVEL0102_COLLISION
                0x082a92cc                CHAPTER04_LEVEL0102_BACK
                0x082ae434                CHAPTER04_LEVEL0102_ACTION_HEIGHT
                0x082a9ace                CHAPTER04_LEVEL0102_MID_HEIGHT
                0x082ae432                CHAPTER04_LEVEL0102_ACTION_WIDTH
                0x082a92ca                CHAPTER04_LEVEL0102_BACK_HEIGHT
                0x082ae436                CHAPTER04_LEVEL0102_ACTION
                0x082a92c8                CHAPTER04_LEVEL0102_BACK_WIDTH
                0x082bbcc6                CHAPTER04_LEVEL0102_COLLISION_WIDTH
                0x082bbcc8                CHAPTER04_LEVEL0102_COLLISION_HEIGHT
                0x082a9ad0                CHAPTER04_LEVEL0102_MID
                0x082a9acc                CHAPTER04_LEVEL0102_MID_WIDTH
 .data          0x082c2914     0xbc1c ../data/Maps//libMaps.a(CHAPTER04_LEVEL0103.o)
                0x082cb542                CHAPTER04_LEVEL0103_COLLISION
                0x082cb53e                CHAPTER04_LEVEL0103_COLLISION_WIDTH
                0x082c3118                CHAPTER04_LEVEL0103_MID_WIDTH
                0x082c311c                CHAPTER04_LEVEL0103_MID
                0x082c2918                CHAPTER04_LEVEL0103_BACK
                0x082cb540                CHAPTER04_LEVEL0103_COLLISION_HEIGHT
                0x082c5566                CHAPTER04_LEVEL0103_ACTION_HEIGHT
                0x082c5568                CHAPTER04_LEVEL0103_ACTION
                0x082c311a                CHAPTER04_LEVEL0103_MID_HEIGHT
                0x082c5564                CHAPTER04_LEVEL0103_ACTION_WIDTH
                0x082c2916                CHAPTER04_LEVEL0103_BACK_HEIGHT
                0x082c2914                CHAPTER04_LEVEL0103_BACK_WIDTH
 .data          0x082ce530    0x13c18 ../data/Maps//libMaps.a(CHAPTER04_LEVEL0104.o)
                0x082dce00                CHAPTER04_LEVEL0104_COLLISION
                0x082dcdfc                CHAPTER04_LEVEL0104_COLLISION_WIDTH
                0x082d276a                CHAPTER04_LEVEL0104_ACTION_HEIGHT
                0x082d2768                CHAPTER04_LEVEL0104_ACTION_WIDTH
                0x082ced38                CHAPTER04_LEVEL0104_MID
                0x082d276c                CHAPTER04_LEVEL0104_ACTION
                0x082ce532                CHAPTER04_LEVEL0104_BACK_HEIGHT
                0x082ced34                CHAPTER04_LEVEL0104_MID_WIDTH
                0x082dcdfe                CHAPTER04_LEVEL0104_COLLISION_HEIGHT
                0x082ced36                CHAPTER04_LEVEL0104_MID_HEIGHT
                0x082ce534                CHAPTER04_LEVEL0104_BACK
                0x082ce530                CHAPTER04_LEVEL0104_BACK_WIDTH
 .data          0x082e2148     0x9594 ../data/Maps//libMaps.a(CHAPTER04_LEVEL0201.o)
                0x082e4910                CHAPTER04_LEVEL0201_ACTION_WIDTH
                0x082e9242                CHAPTER04_LEVEL0201_COLLISION_HEIGHT
                0x082e214c                CHAPTER04_LEVEL0201_BACK
                0x082e214a                CHAPTER04_LEVEL0201_BACK_HEIGHT
                0x082e294e                CHAPTER04_LEVEL0201_MID_HEIGHT
                0x082e4914                CHAPTER04_LEVEL0201_ACTION
                0x082e9244                CHAPTER04_LEVEL0201_COLLISION
                0x082e2950                CHAPTER04_LEVEL0201_MID
                0x082e2148                CHAPTER04_LEVEL0201_BACK_WIDTH
                0x082e4912                CHAPTER04_LEVEL0201_ACTION_HEIGHT
                0x082e9240                CHAPTER04_LEVEL0201_COLLISION_WIDTH
                0x082e294c                CHAPTER04_LEVEL0201_MID_WIDTH
 .data          0x082eb6dc     0xcaa0 ../data/Maps//libMaps.a(CHAPTER04_LEVEL0202.o)
                0x082ebee0                CHAPTER04_LEVEL0202_MID_WIDTH
                0x082ee6c8                CHAPTER04_LEVEL0202_ACTION
                0x082f4dea                CHAPTER04_LEVEL0202_COLLISION_HEIGHT
                0x082ee6c6                CHAPTER04_LEVEL0202_ACTION_HEIGHT
                0x082ebee4                CHAPTER04_LEVEL0202_MID
                0x082f4dec                CHAPTER04_LEVEL0202_COLLISION
                0x082f4de8                CHAPTER04_LEVEL0202_COLLISION_WIDTH
                0x082ebee2                CHAPTER04_LEVEL0202_MID_HEIGHT
                0x082eb6de                CHAPTER04_LEVEL0202_BACK_HEIGHT
                0x082eb6dc                CHAPTER04_LEVEL0202_BACK_WIDTH
                0x082eb6e0                CHAPTER04_LEVEL0202_BACK
                0x082ee6c4                CHAPTER04_LEVEL0202_ACTION_WIDTH
 .data          0x082f817c     0x7e30 ../data/Maps//libMaps.a(CHAPTER04_LEVEL0203.o)
                0x082f8984                CHAPTER04_LEVEL0203_MID
                0x082f817e                CHAPTER04_LEVEL0203_BACK_HEIGHT
                0x082fa3c6                CHAPTER04_LEVEL0203_ACTION_HEIGHT
                0x082f8982                CHAPTER04_LEVEL0203_MID_HEIGHT
                0x082fe10c                CHAPTER04_LEVEL0203_COLLISION
                0x082fa3c4                CHAPTER04_LEVEL0203_ACTION_WIDTH
                0x082f8180                CHAPTER04_LEVEL0203_BACK
                0x082f8980                CHAPTER04_LEVEL0203_MID_WIDTH
                0x082fa3c8                CHAPTER04_LEVEL0203_ACTION
                0x082f817c                CHAPTER04_LEVEL0203_BACK_WIDTH
                0x082fe108                CHAPTER04_LEVEL0203_COLLISION_WIDTH
                0x082fe10a                CHAPTER04_LEVEL0203_COLLISION_HEIGHT
 .data          0x082fffac     0x8d18 ../data/Maps//libMaps.a(CHAPTER04_LEVEL0204.o)
                0x082fffae                CHAPTER04_LEVEL0204_BACK_HEIGHT
                0x08306a40                CHAPTER04_LEVEL0204_COLLISION_WIDTH
                0x083007b0                CHAPTER04_LEVEL0204_MID_WIDTH
                0x08306a44                CHAPTER04_LEVEL0204_COLLISION
                0x0830253c                CHAPTER04_LEVEL0204_ACTION_WIDTH
                0x082fffb0                CHAPTER04_LEVEL0204_BACK
                0x083007b4                CHAPTER04_LEVEL0204_MID
                0x08306a42                CHAPTER04_LEVEL0204_COLLISION_HEIGHT
                0x083007b2                CHAPTER04_LEVEL0204_MID_HEIGHT
                0x082fffac                CHAPTER04_LEVEL0204_BACK_WIDTH
                0x0830253e                CHAPTER04_LEVEL0204_ACTION_HEIGHT
                0x08302540                CHAPTER04_LEVEL0204_ACTION
 .data          0x08308cc4    0x14734 ../data/Maps//libMaps.a(CHAPTER04_LEVEL0205.o)
                0x0830d12e                CHAPTER04_LEVEL0205_ACTION_WIDTH
                0x08317db2                CHAPTER04_LEVEL0205_COLLISION_WIDTH
                0x08308cc6                CHAPTER04_LEVEL0205_BACK_HEIGHT
                0x08308cc8                CHAPTER04_LEVEL0205_BACK
                0x0830d130                CHAPTER04_LEVEL0205_ACTION_HEIGHT
                0x08317db4                CHAPTER04_LEVEL0205_COLLISION_HEIGHT
                0x08308cc4                CHAPTER04_LEVEL0205_BACK_WIDTH
                0x083094ca                CHAPTER04_LEVEL0205_MID_HEIGHT
                0x083094c8                CHAPTER04_LEVEL0205_MID_WIDTH
                0x08317db6                CHAPTER04_LEVEL0205_COLLISION
                0x0830d132                CHAPTER04_LEVEL0205_ACTION
                0x083094cc                CHAPTER04_LEVEL0205_MID
 .data          0x0831d3f8     0x27f8 ../data/Maps//libMaps.a(CHAPTER04_LEVEL0301.o)
                0x0831e5d0                CHAPTER04_LEVEL0301_ACTION
                0x0831d3fc                CHAPTER04_LEVEL0301_BACK
                0x0831f490                CHAPTER04_LEVEL0301_COLLISION
                0x0831d3f8                CHAPTER04_LEVEL0301_BACK_WIDTH
                0x0831d3fa                CHAPTER04_LEVEL0301_BACK_HEIGHT
                0x0831dbfc                CHAPTER04_LEVEL0301_MID_WIDTH
                0x0831dbfe                CHAPTER04_LEVEL0301_MID_HEIGHT
                0x0831e5ce                CHAPTER04_LEVEL0301_ACTION_HEIGHT
                0x0831dc00                CHAPTER04_LEVEL0301_MID
                0x0831f48c                CHAPTER04_LEVEL0301_COLLISION_WIDTH
                0x0831f48e                CHAPTER04_LEVEL0301_COLLISION_HEIGHT
                0x0831e5cc                CHAPTER04_LEVEL0301_ACTION_WIDTH
 .data          0x0831fbf0     0x1d70 ../data/Maps//libMaps.a(CHAPTER04_LEVEL0302.o)
                0x08320b4c                CHAPTER04_LEVEL0302_ACTION
                0x08320b48                CHAPTER04_LEVEL0302_ACTION_WIDTH
                0x08320b4a                CHAPTER04_LEVEL0302_ACTION_HEIGHT
                0x083214b0                CHAPTER04_LEVEL0302_COLLISION
                0x0831fbf2                CHAPTER04_LEVEL0302_BACK_HEIGHT
                0x0831fbf0                CHAPTER04_LEVEL0302_BACK_WIDTH
                0x083203f8                CHAPTER04_LEVEL0302_MID
                0x083214ac                CHAPTER04_LEVEL0302_COLLISION_WIDTH
                0x083203f4                CHAPTER04_LEVEL0302_MID_WIDTH
                0x083214ae                CHAPTER04_LEVEL0302_COLLISION_HEIGHT
                0x0831fbf4                CHAPTER04_LEVEL0302_BACK
                0x083203f6                CHAPTER04_LEVEL0302_MID_HEIGHT
 .data          0x08321960     0x32a4 ../data/Maps//libMaps.a(CHAPTER04_LEVEL0303.o)
                0x083241cc                CHAPTER04_LEVEL0303_COLLISION_WIDTH
                0x08321960                CHAPTER04_LEVEL0303_BACK_WIDTH
                0x08322d66                CHAPTER04_LEVEL0303_ACTION_HEIGHT
                0x083241d0                CHAPTER04_LEVEL0303_COLLISION
                0x08322166                CHAPTER04_LEVEL0303_MID_HEIGHT
                0x08321964                CHAPTER04_LEVEL0303_BACK
                0x08322d68                CHAPTER04_LEVEL0303_ACTION
                0x08322164                CHAPTER04_LEVEL0303_MID_WIDTH
                0x08322d64                CHAPTER04_LEVEL0303_ACTION_WIDTH
                0x08322168                CHAPTER04_LEVEL0303_MID
                0x08321962                CHAPTER04_LEVEL0303_BACK_HEIGHT
                0x083241ce                CHAPTER04_LEVEL0303_COLLISION_HEIGHT
 .data          0x08324c04     0x2da4 ../data/Maps//libMaps.a(CHAPTER04_LEVEL0304.o)
                0x0832540c                CHAPTER04_LEVEL0304_MID
                0x08325f1e                CHAPTER04_LEVEL0304_ACTION_HEIGHT
                0x083270cc                CHAPTER04_LEVEL0304_COLLISION_WIDTH
                0x08324c06                CHAPTER04_LEVEL0304_BACK_HEIGHT
                0x08325f20                CHAPTER04_LEVEL0304_ACTION
                0x083270d0                CHAPTER04_LEVEL0304_COLLISION
                0x08325408                CHAPTER04_LEVEL0304_MID_WIDTH
                0x083270ce                CHAPTER04_LEVEL0304_COLLISION_HEIGHT
                0x0832540a                CHAPTER04_LEVEL0304_MID_HEIGHT
                0x08325f1c                CHAPTER04_LEVEL0304_ACTION_WIDTH
                0x08324c04                CHAPTER04_LEVEL0304_BACK_WIDTH
                0x08324c08                CHAPTER04_LEVEL0304_BACK
 .data          0x083279a8     0x34d0 ../data/Maps//libMaps.a(CHAPTER04_LEVEL0305.o)
                0x08328e70                CHAPTER04_LEVEL0305_ACTION_WIDTH
                0x083281ae                CHAPTER04_LEVEL0305_MID_HEIGHT
                0x0832a3c8                CHAPTER04_LEVEL0305_COLLISION_WIDTH
                0x08328e72                CHAPTER04_LEVEL0305_ACTION_HEIGHT
                0x083281b0                CHAPTER04_LEVEL0305_MID
                0x083279ac                CHAPTER04_LEVEL0305_BACK
                0x083279aa                CHAPTER04_LEVEL0305_BACK_HEIGHT
                0x08328e74                CHAPTER04_LEVEL0305_ACTION
                0x0832a3cc                CHAPTER04_LEVEL0305_COLLISION
                0x083279a8                CHAPTER04_LEVEL0305_BACK_WIDTH
                0x0832a3ca                CHAPTER04_LEVEL0305_COLLISION_HEIGHT
                0x083281ac                CHAPTER04_LEVEL0305_MID_WIDTH
 .data          0x0832ae78     0x1a34 ../data/Maps//libMaps.a(CHAPTER04_LEVEL0306.o)
                0x0832b67e                CHAPTER04_LEVEL0306_MID_HEIGHT
                0x0832b680                CHAPTER04_LEVEL0306_MID
                0x0832b67c                CHAPTER04_LEVEL0306_MID_WIDTH
                0x0832ae78                CHAPTER04_LEVEL0306_BACK_WIDTH
                0x0832c4c8                CHAPTER04_LEVEL0306_COLLISION_WIDTH
                0x0832c4ca                CHAPTER04_LEVEL0306_COLLISION_HEIGHT
                0x0832bd08                CHAPTER04_LEVEL0306_ACTION_WIDTH
                0x0832bd0a                CHAPTER04_LEVEL0306_ACTION_HEIGHT
                0x0832ae7c                CHAPTER04_LEVEL0306_BACK
                0x0832bd0c                CHAPTER04_LEVEL0306_ACTION
                0x0832c4cc                CHAPTER04_LEVEL0306_COLLISION
                0x0832ae7a                CHAPTER04_LEVEL0306_BACK_HEIGHT
 .data          0x0832c8ac     0x8f70 ../data/Maps//libMaps.a(CHAPTER04_LEVEL0401.o)
                0x0832ee9c                CHAPTER04_LEVEL0401_ACTION_WIDTH
                0x0832c8b0                CHAPTER04_LEVEL0401_BACK
                0x0832c8ae                CHAPTER04_LEVEL0401_BACK_HEIGHT
                0x0832eea0                CHAPTER04_LEVEL0401_ACTION
                0x083334f4                CHAPTER04_LEVEL0401_COLLISION
                0x0832d0b4                CHAPTER04_LEVEL0401_MID
                0x083334f2                CHAPTER04_LEVEL0401_COLLISION_HEIGHT
                0x0832d0b2                CHAPTER04_LEVEL0401_MID_HEIGHT
                0x0832d0b0                CHAPTER04_LEVEL0401_MID_WIDTH
                0x0832c8ac                CHAPTER04_LEVEL0401_BACK_WIDTH
                0x083334f0                CHAPTER04_LEVEL0401_COLLISION_WIDTH
                0x0832ee9e                CHAPTER04_LEVEL0401_ACTION_HEIGHT
 .data          0x0833581c     0x7c04 ../data/Maps//libMaps.a(CHAPTER04_LEVEL0402.o)
                0x0833b66a                CHAPTER04_LEVEL0402_COLLISION_WIDTH
                0x08337b08                CHAPTER04_LEVEL0402_ACTION_HEIGHT
                0x0833581e                CHAPTER04_LEVEL0402_BACK_HEIGHT
                0x08337b06                CHAPTER04_LEVEL0402_ACTION_WIDTH
                0x0833581c                CHAPTER04_LEVEL0402_BACK_WIDTH
                0x08337b0a                CHAPTER04_LEVEL0402_ACTION
                0x08336022                CHAPTER04_LEVEL0402_MID_HEIGHT
                0x08335820                CHAPTER04_LEVEL0402_BACK
                0x0833b66e                CHAPTER04_LEVEL0402_COLLISION
                0x08336024                CHAPTER04_LEVEL0402_MID
                0x08336020                CHAPTER04_LEVEL0402_MID_WIDTH
                0x0833b66c                CHAPTER04_LEVEL0402_COLLISION_HEIGHT
 .data          0x0833d420     0x7c04 ../data/Maps//libMaps.a(CHAPTER04_LEVEL0403.o)
                0x0833d422                CHAPTER04_LEVEL0403_BACK_HEIGHT
                0x0833dc26                CHAPTER04_LEVEL0403_MID_HEIGHT
                0x0833f70a                CHAPTER04_LEVEL0403_ACTION_WIDTH
                0x0833f70c                CHAPTER04_LEVEL0403_ACTION_HEIGHT
                0x0833dc24                CHAPTER04_LEVEL0403_MID_WIDTH
                0x0833f70e                CHAPTER04_LEVEL0403_ACTION
                0x0833dc28                CHAPTER04_LEVEL0403_MID
                0x08343272                CHAPTER04_LEVEL0403_COLLISION
                0x0834326e                CHAPTER04_LEVEL0403_COLLISION_WIDTH
                0x0833d420                CHAPTER04_LEVEL0403_BACK_WIDTH
                0x0833d424                CHAPTER04_LEVEL0403_BACK
                0x08343270                CHAPTER04_LEVEL0403_COLLISION_HEIGHT
 .data          0x08345024     0x7c04 ../data/Maps//libMaps.a(CHAPTER04_LEVEL0404.o)
                0x08347310                CHAPTER04_LEVEL0404_ACTION_HEIGHT
                0x0834582a                CHAPTER04_LEVEL0404_MID_HEIGHT
                0x08345828                CHAPTER04_LEVEL0404_MID_WIDTH
                0x0834582c                CHAPTER04_LEVEL0404_MID
                0x08345024                CHAPTER04_LEVEL0404_BACK_WIDTH
                0x08345026                CHAPTER04_LEVEL0404_BACK_HEIGHT
                0x0834730e                CHAPTER04_LEVEL0404_ACTION_WIDTH
                0x0834ae76                CHAPTER04_LEVEL0404_COLLISION
                0x0834ae72                CHAPTER04_LEVEL0404_COLLISION_WIDTH
                0x08347312                CHAPTER04_LEVEL0404_ACTION
                0x0834ae74                CHAPTER04_LEVEL0404_COLLISION_HEIGHT
                0x08345028                CHAPTER04_LEVEL0404_BACK
 .data          0x0834cc28     0x3b20 ../data/Maps//libMaps.a(CHAPTER04_LEVEL0405.o)
                0x0834d430                CHAPTER04_LEVEL0405_MID
                0x0834fac8                CHAPTER04_LEVEL0405_COLLISION
                0x0834cc2c                CHAPTER04_LEVEL0405_BACK
                0x0834cc2a                CHAPTER04_LEVEL0405_BACK_HEIGHT
                0x0834d42c                CHAPTER04_LEVEL0405_MID_WIDTH
                0x0834e1c2                CHAPTER04_LEVEL0405_ACTION_HEIGHT
                0x0834d42e                CHAPTER04_LEVEL0405_MID_HEIGHT
                0x0834e1c0                CHAPTER04_LEVEL0405_ACTION_WIDTH
                0x0834e1c4                CHAPTER04_LEVEL0405_ACTION
                0x0834fac6                CHAPTER04_LEVEL0405_COLLISION_HEIGHT
                0x0834fac4                CHAPTER04_LEVEL0405_COLLISION_WIDTH
                0x0834cc28                CHAPTER04_LEVEL0405_BACK_WIDTH
 .data          0x08350748     0x3b20 ../data/Maps//libMaps.a(CHAPTER04_LEVEL0406.o)
                0x08350748                CHAPTER04_LEVEL0406_BACK_WIDTH
                0x08350f4e                CHAPTER04_LEVEL0406_MID_HEIGHT
                0x083535e6                CHAPTER04_LEVEL0406_COLLISION_HEIGHT
                0x083535e8                CHAPTER04_LEVEL0406_COLLISION
                0x08350f50                CHAPTER04_LEVEL0406_MID
                0x08351ce0                CHAPTER04_LEVEL0406_ACTION_WIDTH
                0x0835074c                CHAPTER04_LEVEL0406_BACK
                0x08351ce4                CHAPTER04_LEVEL0406_ACTION
                0x083535e4                CHAPTER04_LEVEL0406_COLLISION_WIDTH
                0x08350f4c                CHAPTER04_LEVEL0406_MID_WIDTH
                0x0835074a                CHAPTER04_LEVEL0406_BACK_HEIGHT
                0x08351ce2                CHAPTER04_LEVEL0406_ACTION_HEIGHT
 .data          0x08354268     0x49a0 ../data/Maps//libMaps.a(CHAPTER04_LEVEL0407.o)
                0x08355aca                CHAPTER04_LEVEL0407_ACTION
                0x08354a6e                CHAPTER04_LEVEL0407_MID_HEIGHT
                0x08355ac8                CHAPTER04_LEVEL0407_ACTION_HEIGHT
                0x08357b9e                CHAPTER04_LEVEL0407_COLLISION
                0x08354a70                CHAPTER04_LEVEL0407_MID
                0x08354268                CHAPTER04_LEVEL0407_BACK_WIDTH
                0x08355ac6                CHAPTER04_LEVEL0407_ACTION_WIDTH
                0x08354a6c                CHAPTER04_LEVEL0407_MID_WIDTH
                0x08357b9a                CHAPTER04_LEVEL0407_COLLISION_WIDTH
                0x0835426c                CHAPTER04_LEVEL0407_BACK
                0x0835426a                CHAPTER04_LEVEL0407_BACK_HEIGHT
                0x08357b9c                CHAPTER04_LEVEL0407_COLLISION_HEIGHT
 .data          0x08358c08     0x917c ../data/Maps//libMaps.a(CHAPTER05_LEVEL0101.o)
                0x0835b2d4                CHAPTER05_LEVEL0101_ACTION_HEIGHT
                0x0835f9f4                CHAPTER05_LEVEL0101_COLLISION_HEIGHT
                0x08358c0c                CHAPTER05_LEVEL0101_BACK
                0x0835940c                CHAPTER05_LEVEL0101_MID_WIDTH
                0x0835940e                CHAPTER05_LEVEL0101_MID_HEIGHT
                0x0835b2d6                CHAPTER05_LEVEL0101_ACTION
                0x08358c0a                CHAPTER05_LEVEL0101_BACK_HEIGHT
                0x0835f9f2                CHAPTER05_LEVEL0101_COLLISION_WIDTH
                0x08358c08                CHAPTER05_LEVEL0101_BACK_WIDTH
                0x08359410                CHAPTER05_LEVEL0101_MID
                0x0835b2d2                CHAPTER05_LEVEL0101_ACTION_WIDTH
                0x0835f9f6                CHAPTER05_LEVEL0101_COLLISION
 .data          0x08361d84     0x8c88 ../data/Maps//libMaps.a(CHAPTER05_LEVEL0102.o)
                0x083687f8                CHAPTER05_LEVEL0102_COLLISION_HEIGHT
                0x083643d4                CHAPTER05_LEVEL0102_ACTION_HEIGHT
                0x083643d6                CHAPTER05_LEVEL0102_ACTION
                0x0836258a                CHAPTER05_LEVEL0102_MID_HEIGHT
                0x0836258c                CHAPTER05_LEVEL0102_MID
                0x08362588                CHAPTER05_LEVEL0102_MID_WIDTH
                0x083643d2                CHAPTER05_LEVEL0102_ACTION_WIDTH
                0x083687fa                CHAPTER05_LEVEL0102_COLLISION
                0x08361d84                CHAPTER05_LEVEL0102_BACK_WIDTH
                0x083687f6                CHAPTER05_LEVEL0102_COLLISION_WIDTH
                0x08361d88                CHAPTER05_LEVEL0102_BACK
                0x08361d86                CHAPTER05_LEVEL0102_BACK_HEIGHT
 .data          0x0836aa0c     0xa764 ../data/Maps//libMaps.a(CHAPTER05_LEVEL0103.o)
                0x0836aa10                CHAPTER05_LEVEL0103_BACK
                0x0836d528                CHAPTER05_LEVEL0103_ACTION
                0x0836b212                CHAPTER05_LEVEL0103_MID_HEIGHT
                0x08372802                CHAPTER05_LEVEL0103_COLLISION_HEIGHT
                0x0836d526                CHAPTER05_LEVEL0103_ACTION_HEIGHT
                0x0836b210                CHAPTER05_LEVEL0103_MID_WIDTH
                0x0836b214                CHAPTER05_LEVEL0103_MID
                0x0836aa0c                CHAPTER05_LEVEL0103_BACK_WIDTH
                0x08372800                CHAPTER05_LEVEL0103_COLLISION_WIDTH
                0x0836d524                CHAPTER05_LEVEL0103_ACTION_WIDTH
                0x08372804                CHAPTER05_LEVEL0103_COLLISION
                0x0836aa0e                CHAPTER05_LEVEL0103_BACK_HEIGHT
 .data          0x08375170     0x7164 ../data/Maps//libMaps.a(CHAPTER05_LEVEL0201.o)
                0x08375974                CHAPTER05_LEVEL0201_MID_WIDTH
                0x0837722c                CHAPTER05_LEVEL0201_ACTION_WIDTH
                0x08375170                CHAPTER05_LEVEL0201_BACK_WIDTH
                0x08375174                CHAPTER05_LEVEL0201_BACK
                0x08375172                CHAPTER05_LEVEL0201_BACK_HEIGHT
                0x08375976                CHAPTER05_LEVEL0201_MID_HEIGHT
                0x08375978                CHAPTER05_LEVEL0201_MID
                0x0837a7f2                CHAPTER05_LEVEL0201_COLLISION_HEIGHT
                0x0837a7f4                CHAPTER05_LEVEL0201_COLLISION
                0x0837a7f0                CHAPTER05_LEVEL0201_COLLISION_WIDTH
                0x08377230                CHAPTER05_LEVEL0201_ACTION
                0x0837722e                CHAPTER05_LEVEL0201_ACTION_HEIGHT
 .data          0x0837c2d4     0xb9b8 ../data/Maps//libMaps.a(CHAPTER05_LEVEL0202.o)
                0x0837f026                CHAPTER05_LEVEL0202_ACTION_WIDTH
                0x0837f028                CHAPTER05_LEVEL0202_ACTION_HEIGHT
                0x08384dbe                CHAPTER05_LEVEL0202_COLLISION_WIDTH
                0x0837cada                CHAPTER05_LEVEL0202_MID_HEIGHT
                0x0837cad8                CHAPTER05_LEVEL0202_MID_WIDTH
                0x0837cadc                CHAPTER05_LEVEL0202_MID
                0x0837f02a                CHAPTER05_LEVEL0202_ACTION
                0x08384dc2                CHAPTER05_LEVEL0202_COLLISION
                0x0837c2d8                CHAPTER05_LEVEL0202_BACK
                0x0837c2d6                CHAPTER05_LEVEL0202_BACK_HEIGHT
                0x08384dc0                CHAPTER05_LEVEL0202_COLLISION_HEIGHT
                0x0837c2d4                CHAPTER05_LEVEL0202_BACK_WIDTH
 .data          0x08387c8c     0x9210 ../data/Maps//libMaps.a(CHAPTER05_LEVEL0203.o)
                0x0838ea88                CHAPTER05_LEVEL0203_COLLISION_HEIGHT
                0x08388492                CHAPTER05_LEVEL0203_MID_HEIGHT
                0x0838ea86                CHAPTER05_LEVEL0203_COLLISION_WIDTH
                0x08388490                CHAPTER05_LEVEL0203_MID_WIDTH
                0x08387c90                CHAPTER05_LEVEL0203_BACK
                0x08388494                CHAPTER05_LEVEL0203_MID
                0x0838a264                CHAPTER05_LEVEL0203_ACTION_WIDTH
                0x08387c8e                CHAPTER05_LEVEL0203_BACK_HEIGHT
                0x0838ea8a                CHAPTER05_LEVEL0203_COLLISION
                0x0838a266                CHAPTER05_LEVEL0203_ACTION_HEIGHT
                0x08387c8c                CHAPTER05_LEVEL0203_BACK_WIDTH
                0x0838a268                CHAPTER05_LEVEL0203_ACTION
 .data          0x08390e9c     0x65d0 ../data/Maps//libMaps.a(CHAPTER05_LEVEL0204.o)
                0x08392d24                CHAPTER05_LEVEL0204_ACTION_WIDTH
                0x08395cac                CHAPTER05_LEVEL0204_COLLISION
                0x083916a4                CHAPTER05_LEVEL0204_MID
                0x08395ca8                CHAPTER05_LEVEL0204_COLLISION_WIDTH
                0x08390e9e                CHAPTER05_LEVEL0204_BACK_HEIGHT
                0x08392d26                CHAPTER05_LEVEL0204_ACTION_HEIGHT
                0x083916a0                CHAPTER05_LEVEL0204_MID_WIDTH
                0x08395caa                CHAPTER05_LEVEL0204_COLLISION_HEIGHT
                0x08390e9c                CHAPTER05_LEVEL0204_BACK_WIDTH
                0x08392d28                CHAPTER05_LEVEL0204_ACTION
                0x08390ea0                CHAPTER05_LEVEL0204_BACK
                0x083916a2                CHAPTER05_LEVEL0204_MID_HEIGHT
 .data          0x0839746c     0xb820 ../data/Maps//libMaps.a(CHAPTER05_LEVEL0301.o)
                0x0839a012                CHAPTER05_LEVEL0301_ACTION_HEIGHT
                0x08397470                CHAPTER05_LEVEL0301_BACK
                0x0839fdb8                CHAPTER05_LEVEL0301_COLLISION_HEIGHT
                0x0839fdb6                CHAPTER05_LEVEL0301_COLLISION_WIDTH
                0x0839746e                CHAPTER05_LEVEL0301_BACK_HEIGHT
                0x08397c72                CHAPTER05_LEVEL0301_MID_HEIGHT
                0x08397c74                CHAPTER05_LEVEL0301_MID
                0x0839746c                CHAPTER05_LEVEL0301_BACK_WIDTH
                0x0839fdba                CHAPTER05_LEVEL0301_COLLISION
                0x08397c70                CHAPTER05_LEVEL0301_MID_WIDTH
                0x0839a010                CHAPTER05_LEVEL0301_ACTION_WIDTH
                0x0839a014                CHAPTER05_LEVEL0301_ACTION
 .data          0x083a2c8c     0xb6a4 ../data/Maps//libMaps.a(CHAPTER05_LEVEL0302.o)
                0x083ab4f8                CHAPTER05_LEVEL0302_COLLISION
                0x083a2c8e                CHAPTER05_LEVEL0302_BACK_HEIGHT
                0x083ab4f6                CHAPTER05_LEVEL0302_COLLISION_HEIGHT
                0x083a3490                CHAPTER05_LEVEL0302_MID_WIDTH
                0x083a5888                CHAPTER05_LEVEL0302_ACTION
                0x083a5886                CHAPTER05_LEVEL0302_ACTION_HEIGHT
                0x083a5884                CHAPTER05_LEVEL0302_ACTION_WIDTH
                0x083a2c8c                CHAPTER05_LEVEL0302_BACK_WIDTH
                0x083ab4f4                CHAPTER05_LEVEL0302_COLLISION_WIDTH
                0x083a3494                CHAPTER05_LEVEL0302_MID
                0x083a2c90                CHAPTER05_LEVEL0302_BACK
                0x083a3492                CHAPTER05_LEVEL0302_MID_HEIGHT
 .data          0x083ae330     0x77c0 ../data/Maps//libMaps.a(CHAPTER05_LEVEL0303.o)
                0x083aeb38                CHAPTER05_LEVEL0303_MID
                0x083b0462                CHAPTER05_LEVEL0303_ACTION
                0x083aeb34                CHAPTER05_LEVEL0303_MID_WIDTH
                0x083b3e14                CHAPTER05_LEVEL0303_COLLISION_HEIGHT
                0x083b3e12                CHAPTER05_LEVEL0303_COLLISION_WIDTH
                0x083ae330                CHAPTER05_LEVEL0303_BACK_WIDTH
                0x083ae332                CHAPTER05_LEVEL0303_BACK_HEIGHT
                0x083b045e                CHAPTER05_LEVEL0303_ACTION_WIDTH
                0x083aeb36                CHAPTER05_LEVEL0303_MID_HEIGHT
                0x083b3e16                CHAPTER05_LEVEL0303_COLLISION
                0x083ae334                CHAPTER05_LEVEL0303_BACK
                0x083b0460                CHAPTER05_LEVEL0303_ACTION_HEIGHT
 .data          0x083b5af0     0x7f78 ../data/Maps//libMaps.a(CHAPTER05_LEVEL0304.o)
                0x083b7d24                CHAPTER05_LEVEL0304_ACTION_WIDTH
                0x083b5af0                CHAPTER05_LEVEL0304_BACK_WIDTH
                0x083bbb54                CHAPTER05_LEVEL0304_COLLISION
                0x083b5af2                CHAPTER05_LEVEL0304_BACK_HEIGHT
                0x083b7d28                CHAPTER05_LEVEL0304_ACTION
                0x083b62f6                CHAPTER05_LEVEL0304_MID_HEIGHT
                0x083b62f8                CHAPTER05_LEVEL0304_MID
                0x083b62f4                CHAPTER05_LEVEL0304_MID_WIDTH
                0x083b5af4                CHAPTER05_LEVEL0304_BACK
                0x083bbb52                CHAPTER05_LEVEL0304_COLLISION_HEIGHT
                0x083b7d26                CHAPTER05_LEVEL0304_ACTION_HEIGHT
                0x083bbb50                CHAPTER05_LEVEL0304_COLLISION_WIDTH
 .data          0x083bda68     0x9810 ../data/Maps//libMaps.a(CHAPTER05_LEVEL0305.o)
                0x083bda6a                CHAPTER05_LEVEL0305_BACK_HEIGHT
                0x083bda68                CHAPTER05_LEVEL0305_BACK_WIDTH
                0x083c01f0                CHAPTER05_LEVEL0305_ACTION_WIDTH
                0x083be270                CHAPTER05_LEVEL0305_MID
                0x083bda6c                CHAPTER05_LEVEL0305_BACK
                0x083c4cf4                CHAPTER05_LEVEL0305_COLLISION_WIDTH
                0x083be26c                CHAPTER05_LEVEL0305_MID_WIDTH
                0x083c01f4                CHAPTER05_LEVEL0305_ACTION
                0x083c01f2                CHAPTER05_LEVEL0305_ACTION_HEIGHT
                0x083c4cf6                CHAPTER05_LEVEL0305_COLLISION_HEIGHT
                0x083be26e                CHAPTER05_LEVEL0305_MID_HEIGHT
                0x083c4cf8                CHAPTER05_LEVEL0305_COLLISION
 .data          0x083c7278     0x3570 ../data/Maps//libMaps.a(CHAPTER05_LEVEL0401.o)
                0x083c9ce4                CHAPTER05_LEVEL0401_COLLISION_WIDTH
                0x083c727c                CHAPTER05_LEVEL0401_BACK
                0x083c86e0                CHAPTER05_LEVEL0401_ACTION_WIDTH
                0x083c86e2                CHAPTER05_LEVEL0401_ACTION_HEIGHT
                0x083c9ce8                CHAPTER05_LEVEL0401_COLLISION
                0x083c7a7c                CHAPTER05_LEVEL0401_MID_WIDTH
                0x083c7278                CHAPTER05_LEVEL0401_BACK_WIDTH
                0x083c9ce6                CHAPTER05_LEVEL0401_COLLISION_HEIGHT
                0x083c86e4                CHAPTER05_LEVEL0401_ACTION
                0x083c727a                CHAPTER05_LEVEL0401_BACK_HEIGHT
                0x083c7a7e                CHAPTER05_LEVEL0401_MID_HEIGHT
                0x083c7a80                CHAPTER05_LEVEL0401_MID
 .data          0x083ca7e8     0x3910 ../data/Maps//libMaps.a(CHAPTER05_LEVEL0402.o)
                0x083cbd14                CHAPTER05_LEVEL0402_ACTION_WIDTH
                0x083ca7e8                CHAPTER05_LEVEL0402_BACK_WIDTH
                0x083caff0                CHAPTER05_LEVEL0402_MID
                0x083cd500                CHAPTER05_LEVEL0402_COLLISION_WIDTH
                0x083cd502                CHAPTER05_LEVEL0402_COLLISION_HEIGHT
                0x083ca7ec                CHAPTER05_LEVEL0402_BACK
                0x083cbd18                CHAPTER05_LEVEL0402_ACTION
                0x083cd504                CHAPTER05_LEVEL0402_COLLISION
                0x083cbd16                CHAPTER05_LEVEL0402_ACTION_HEIGHT
                0x083cafee                CHAPTER05_LEVEL0402_MID_HEIGHT
                0x083ca7ea                CHAPTER05_LEVEL0402_BACK_HEIGHT
                0x083cafec                CHAPTER05_LEVEL0402_MID_WIDTH
 .data          0x083ce0f8     0x4e8c ../data/Maps//libMaps.a(CHAPTER05_LEVEL0403.o)
                0x083cfa28                CHAPTER05_LEVEL0403_ACTION_WIDTH
                0x083cfa2c                CHAPTER05_LEVEL0403_ACTION
                0x083ce0fa                CHAPTER05_LEVEL0403_BACK_HEIGHT
                0x083ce0fc                CHAPTER05_LEVEL0403_BACK
                0x083ce0f8                CHAPTER05_LEVEL0403_BACK_WIDTH
                0x083d1dbc                CHAPTER05_LEVEL0403_COLLISION
                0x083ce8fc                CHAPTER05_LEVEL0403_MID_WIDTH
                0x083ce8fe                CHAPTER05_LEVEL0403_MID_HEIGHT
                0x083d1db8                CHAPTER05_LEVEL0403_COLLISION_WIDTH
                0x083cfa2a                CHAPTER05_LEVEL0403_ACTION_HEIGHT
                0x083ce900                CHAPTER05_LEVEL0403_MID
                0x083d1dba                CHAPTER05_LEVEL0403_COLLISION_HEIGHT
 .data          0x083d2f84     0x7c88 ../data/Maps//libMaps.a(CHAPTER05_LEVEL0404.o)
                0x083d8dda                CHAPTER05_LEVEL0404_COLLISION
                0x083d5174                CHAPTER05_LEVEL0404_ACTION_HEIGHT
                0x083d2f88                CHAPTER05_LEVEL0404_BACK
                0x083d2f84                CHAPTER05_LEVEL0404_BACK_WIDTH
                0x083d5172                CHAPTER05_LEVEL0404_ACTION_WIDTH
                0x083d3788                CHAPTER05_LEVEL0404_MID_WIDTH
                0x083d8dd8                CHAPTER05_LEVEL0404_COLLISION_HEIGHT
                0x083d2f86                CHAPTER05_LEVEL0404_BACK_HEIGHT
                0x083d5176                CHAPTER05_LEVEL0404_ACTION
                0x083d378c                CHAPTER05_LEVEL0404_MID
                0x083d378a                CHAPTER05_LEVEL0404_MID_HEIGHT
                0x083d8dd6                CHAPTER05_LEVEL0404_COLLISION_WIDTH
 .data          0x083dac0c     0x5b50 ../data/Maps//libMaps.a(CHAPTER05_LEVEL0405.o)
                0x083dac10                CHAPTER05_LEVEL0405_BACK
                0x083df228                CHAPTER05_LEVEL0405_COLLISION_WIDTH
                0x083df22c                CHAPTER05_LEVEL0405_COLLISION
                0x083dac0c                CHAPTER05_LEVEL0405_BACK_WIDTH
                0x083db410                CHAPTER05_LEVEL0405_MID_WIDTH
                0x083db414                CHAPTER05_LEVEL0405_MID
                0x083dac0e                CHAPTER05_LEVEL0405_BACK_HEIGHT
                0x083dc7c4                CHAPTER05_LEVEL0405_ACTION_WIDTH
                0x083db412                CHAPTER05_LEVEL0405_MID_HEIGHT
                0x083dc7c8                CHAPTER05_LEVEL0405_ACTION
                0x083df22a                CHAPTER05_LEVEL0405_COLLISION_HEIGHT
                0x083dc7c6                CHAPTER05_LEVEL0405_ACTION_HEIGHT
 .data          0x083e075c     0x5b50 ../data/Maps//libMaps.a(CHAPTER05_LEVEL0406.o)
                0x083e0f64                CHAPTER05_LEVEL0406_MID
                0x083e0f62                CHAPTER05_LEVEL0406_MID_HEIGHT
                0x083e4d78                CHAPTER05_LEVEL0406_COLLISION_WIDTH
                0x083e0760                CHAPTER05_LEVEL0406_BACK
                0x083e0f60                CHAPTER05_LEVEL0406_MID_WIDTH
                0x083e2314                CHAPTER05_LEVEL0406_ACTION_WIDTH
                0x083e4d7a                CHAPTER05_LEVEL0406_COLLISION_HEIGHT
                0x083e2316                CHAPTER05_LEVEL0406_ACTION_HEIGHT
                0x083e075c                CHAPTER05_LEVEL0406_BACK_WIDTH
                0x083e075e                CHAPTER05_LEVEL0406_BACK_HEIGHT
                0x083e4d7c                CHAPTER05_LEVEL0406_COLLISION
                0x083e2318                CHAPTER05_LEVEL0406_ACTION
 .data          0x083e62ac     0x5b50 ../data/Maps//libMaps.a(CHAPTER05_LEVEL0407.o)
                0x083e6ab2                CHAPTER05_LEVEL0407_MID_HEIGHT
                0x083e6ab0                CHAPTER05_LEVEL0407_MID_WIDTH
                0x083ea8c8                CHAPTER05_LEVEL0407_COLLISION_WIDTH
                0x083e6ab4                CHAPTER05_LEVEL0407_MID
                0x083e62b0                CHAPTER05_LEVEL0407_BACK
                0x083ea8ca                CHAPTER05_LEVEL0407_COLLISION_HEIGHT
                0x083e62ac                CHAPTER05_LEVEL0407_BACK_WIDTH
                0x083e62ae                CHAPTER05_LEVEL0407_BACK_HEIGHT
                0x083e7e66                CHAPTER05_LEVEL0407_ACTION_HEIGHT
                0x083ea8cc                CHAPTER05_LEVEL0407_COLLISION
                0x083e7e68                CHAPTER05_LEVEL0407_ACTION
                0x083e7e64                CHAPTER05_LEVEL0407_ACTION_WIDTH
 .data          0x083ebdfc     0x5088 ../data/Maps//libMaps.a(CHAPTER05_LEVEL0408.o)
                0x083ebdfe                CHAPTER05_LEVEL0408_BACK_HEIGHT
                0x083ed7a6                CHAPTER05_LEVEL0408_ACTION_HEIGHT
                0x083efc3a                CHAPTER05_LEVEL0408_COLLISION_HEIGHT
                0x083ed7a8                CHAPTER05_LEVEL0408_ACTION
                0x083ec604                CHAPTER05_LEVEL0408_MID
                0x083ed7a4                CHAPTER05_LEVEL0408_ACTION_WIDTH
                0x083efc38                CHAPTER05_LEVEL0408_COLLISION_WIDTH
                0x083ebdfc                CHAPTER05_LEVEL0408_BACK_WIDTH
                0x083ec600                CHAPTER05_LEVEL0408_MID_WIDTH
                0x083ec602                CHAPTER05_LEVEL0408_MID_HEIGHT
                0x083efc3c                CHAPTER05_LEVEL0408_COLLISION
                0x083ebe00                CHAPTER05_LEVEL0408_BACK
 .data          0x083f0e84     0x70e0 ../data/Maps//libMaps.a(CHAPTER06_LEVEL0101.o)
                0x083f6492                CHAPTER06_LEVEL0101_COLLISION_HEIGHT
                0x083f168c                CHAPTER06_LEVEL0101_MID
                0x083f6490                CHAPTER06_LEVEL0101_COLLISION_WIDTH
                0x083f0e84                CHAPTER06_LEVEL0101_BACK_WIDTH
                0x083f0e86                CHAPTER06_LEVEL0101_BACK_HEIGHT
                0x083f0e88                CHAPTER06_LEVEL0101_BACK
                0x083f2eee                CHAPTER06_LEVEL0101_ACTION_HEIGHT
                0x083f1688                CHAPTER06_LEVEL0101_MID_WIDTH
                0x083f168a                CHAPTER06_LEVEL0101_MID_HEIGHT
                0x083f2ef0                CHAPTER06_LEVEL0101_ACTION
                0x083f6494                CHAPTER06_LEVEL0101_COLLISION
                0x083f2eec                CHAPTER06_LEVEL0101_ACTION_WIDTH
 .data          0x083f7f64     0xbe14 ../data/Maps//libMaps.a(CHAPTER06_LEVEL0102.o)
                0x083f876a                CHAPTER06_LEVEL0102_MID_HEIGHT
                0x083fac96                CHAPTER06_LEVEL0102_ACTION_WIDTH
                0x08400d2e                CHAPTER06_LEVEL0102_COLLISION
                0x083f8768                CHAPTER06_LEVEL0102_MID_WIDTH
                0x083fac98                CHAPTER06_LEVEL0102_ACTION_HEIGHT
                0x083f7f66                CHAPTER06_LEVEL0102_BACK_HEIGHT
                0x083f7f64                CHAPTER06_LEVEL0102_BACK_WIDTH
                0x08400d2c                CHAPTER06_LEVEL0102_COLLISION_HEIGHT
                0x083f7f68                CHAPTER06_LEVEL0102_BACK
                0x083f876c                CHAPTER06_LEVEL0102_MID
                0x08400d2a                CHAPTER06_LEVEL0102_COLLISION_WIDTH
                0x083fac9a                CHAPTER06_LEVEL0102_ACTION
 .data          0x08403d78    0x11ba0 ../data/Maps//libMaps.a(CHAPTER06_LEVEL0301.o)
                0x0840457e                CHAPTER06_LEVEL0301_MID_HEIGHT
                0x08407a66                CHAPTER06_LEVEL0301_ACTION_WIDTH
                0x08410ede                CHAPTER06_LEVEL0301_COLLISION
                0x08407a6a                CHAPTER06_LEVEL0301_ACTION
                0x08404580                CHAPTER06_LEVEL0301_MID
                0x0840457c                CHAPTER06_LEVEL0301_MID_WIDTH
                0x08407a68                CHAPTER06_LEVEL0301_ACTION_HEIGHT
                0x08403d7a                CHAPTER06_LEVEL0301_BACK_HEIGHT
                0x08403d7c                CHAPTER06_LEVEL0301_BACK
                0x08410edc                CHAPTER06_LEVEL0301_COLLISION_HEIGHT
                0x08403d78                CHAPTER06_LEVEL0301_BACK_WIDTH
                0x08410eda                CHAPTER06_LEVEL0301_COLLISION_WIDTH
 .data          0x08415918    0x12f28 ../data/Maps//libMaps.a(CHAPTER06_LEVEL0302.o)
                0x0841591a                CHAPTER06_LEVEL0302_BACK_HEIGHT
                0x0841611e                CHAPTER06_LEVEL0302_MID_HEIGHT
                0x08416120                CHAPTER06_LEVEL0302_MID
                0x08415918                CHAPTER06_LEVEL0302_BACK_WIDTH
                0x084198de                CHAPTER06_LEVEL0302_ACTION_HEIGHT
                0x084198dc                CHAPTER06_LEVEL0302_ACTION_WIDTH
                0x0841611c                CHAPTER06_LEVEL0302_MID_WIDTH
                0x08423872                CHAPTER06_LEVEL0302_COLLISION_WIDTH
                0x08423876                CHAPTER06_LEVEL0302_COLLISION
                0x08423874                CHAPTER06_LEVEL0302_COLLISION_HEIGHT
                0x0841591c                CHAPTER06_LEVEL0302_BACK
                0x084198e0                CHAPTER06_LEVEL0302_ACTION
 .data          0x08428840     0x81e8 ../data/Maps//libMaps.a(CHAPTER06_LEVEL0501.o)
                0x0842eae6                CHAPTER06_LEVEL0501_COLLISION_HEIGHT
                0x0842ac60                CHAPTER06_LEVEL0501_ACTION_WIDTH
                0x08429046                CHAPTER06_LEVEL0501_MID_HEIGHT
                0x0842ac62                CHAPTER06_LEVEL0501_ACTION_HEIGHT
                0x08429048                CHAPTER06_LEVEL0501_MID
                0x0842ac64                CHAPTER06_LEVEL0501_ACTION
                0x0842eae8                CHAPTER06_LEVEL0501_COLLISION
                0x08429044                CHAPTER06_LEVEL0501_MID_WIDTH
                0x08428840                CHAPTER06_LEVEL0501_BACK_WIDTH
                0x08428844                CHAPTER06_LEVEL0501_BACK
                0x08428842                CHAPTER06_LEVEL0501_BACK_HEIGHT
                0x0842eae4                CHAPTER06_LEVEL0501_COLLISION_WIDTH
 .data          0x08430a28     0x9848 ../data/Maps//libMaps.a(CHAPTER06_LEVEL0502.o)
                0x08431230                CHAPTER06_LEVEL0502_MID
                0x084331e8                CHAPTER06_LEVEL0502_ACTION_WIDTH
                0x084331ea                CHAPTER06_LEVEL0502_ACTION_HEIGHT
                0x0843122e                CHAPTER06_LEVEL0502_MID_HEIGHT
                0x08437cec                CHAPTER06_LEVEL0502_COLLISION_WIDTH
                0x08430a28                CHAPTER06_LEVEL0502_BACK_WIDTH
                0x08430a2a                CHAPTER06_LEVEL0502_BACK_HEIGHT
                0x08437cf0                CHAPTER06_LEVEL0502_COLLISION
                0x08437cee                CHAPTER06_LEVEL0502_COLLISION_HEIGHT
                0x0843122c                CHAPTER06_LEVEL0502_MID_WIDTH
                0x084331ec                CHAPTER06_LEVEL0502_ACTION
                0x08430a2c                CHAPTER06_LEVEL0502_BACK
 .data          0x0843a270     0x9c6c ../data/Maps//libMaps.a(CHAPTER06_LEVEL0503.o)
                0x0843aa76                CHAPTER06_LEVEL0503_MID_HEIGHT
                0x0843cad4                CHAPTER06_LEVEL0503_ACTION
                0x0843aa78                CHAPTER06_LEVEL0503_MID
                0x0844182c                CHAPTER06_LEVEL0503_COLLISION_WIDTH
                0x08441830                CHAPTER06_LEVEL0503_COLLISION
                0x0843a270                CHAPTER06_LEVEL0503_BACK_WIDTH
                0x0843cad2                CHAPTER06_LEVEL0503_ACTION_HEIGHT
                0x0843aa74                CHAPTER06_LEVEL0503_MID_WIDTH
                0x0843a272                CHAPTER06_LEVEL0503_BACK_HEIGHT
                0x0844182e                CHAPTER06_LEVEL0503_COLLISION_HEIGHT
                0x0843cad0                CHAPTER06_LEVEL0503_ACTION_WIDTH
                0x0843a274                CHAPTER06_LEVEL0503_BACK
 .data          0x08443edc    0x168f0 ../data/Maps//libMaps.a(CHAPTER06_LEVEL0504.o)
                0x08443edc                CHAPTER06_LEVEL0504_BACK_WIDTH
                0x084446e2                CHAPTER06_LEVEL0504_MID_HEIGHT
                0x084488a8                CHAPTER06_LEVEL0504_ACTION_WIDTH
                0x084488aa                CHAPTER06_LEVEL0504_ACTION_HEIGHT
                0x08454816                CHAPTER06_LEVEL0504_COLLISION_HEIGHT
                0x08454818                CHAPTER06_LEVEL0504_COLLISION
                0x084446e0                CHAPTER06_LEVEL0504_MID_WIDTH
                0x084488ac                CHAPTER06_LEVEL0504_ACTION
                0x08443ee0                CHAPTER06_LEVEL0504_BACK
                0x084446e4                CHAPTER06_LEVEL0504_MID
                0x08454814                CHAPTER06_LEVEL0504_COLLISION_WIDTH
                0x08443ede                CHAPTER06_LEVEL0504_BACK_HEIGHT
 .data          0x0845a7cc    0x18c70 ../data/Maps//libMaps.a(CHAPTER06_LEVEL0505.o)
                0x0845a7ce                CHAPTER06_LEVEL0505_BACK_HEIGHT
                0x0845a7d0                CHAPTER06_LEVEL0505_BACK
                0x0846cac0                CHAPTER06_LEVEL0505_COLLISION_HEIGHT
                0x0846cac2                CHAPTER06_LEVEL0505_COLLISION
                0x0845f7ca                CHAPTER06_LEVEL0505_ACTION_WIDTH
                0x0845afd2                CHAPTER06_LEVEL0505_MID_HEIGHT
                0x0845afd0                CHAPTER06_LEVEL0505_MID_WIDTH
                0x0846cabe                CHAPTER06_LEVEL0505_COLLISION_WIDTH
                0x0845a7cc                CHAPTER06_LEVEL0505_BACK_WIDTH
                0x0845f7ce                CHAPTER06_LEVEL0505_ACTION
                0x0845f7cc                CHAPTER06_LEVEL0505_ACTION_HEIGHT
                0x0845afd4                CHAPTER06_LEVEL0505_MID
 .data          0x0847343c     0xac80 ../data/Maps//libMaps.a(CHAPTER01_LEVEL01_TILEBANK.o)
                0x0847debc                CHAPTER01_LEVEL01_TILEPALETTE
                0x0847343c                CHAPTER01_LEVEL01_TILEBANK
 .data          0x0847e0bc     0x9980 ../data/Maps//libMaps.a(CHAPTER01_LEVEL02_TILEBANK.o)
                0x0848783c                CHAPTER01_LEVEL02_TILEPALETTE
                0x0847e0bc                CHAPTER01_LEVEL02_TILEBANK
 .data          0x08487a3c     0x7f80 ../data/Maps//libMaps.a(CHAPTER01_LEVEL03_TILEBANK.o)
                0x0848f7bc                CHAPTER01_LEVEL03_TILEPALETTE
                0x08487a3c                CHAPTER01_LEVEL03_TILEBANK
 .data          0x0848f9bc     0x6d80 ../data/Maps//libMaps.a(CHAPTER01_LEVEL04_TILEBANK.o)
                0x0849653c                CHAPTER01_LEVEL04_TILEPALETTE
                0x0848f9bc                CHAPTER01_LEVEL04_TILEBANK
 .data          0x0849673c     0x7d40 ../data/Maps//libMaps.a(CHAPTER02_LEVEL01_TILEBANK.o)
                0x0849673c                CHAPTER02_LEVEL01_TILEBANK
                0x0849e27c                CHAPTER02_LEVEL01_TILEPALETTE
 .data          0x0849e47c     0x9100 ../data/Maps//libMaps.a(CHAPTER02_LEVEL02_TILEBANK.o)
                0x0849e47c                CHAPTER02_LEVEL02_TILEBANK
                0x084a737c                CHAPTER02_LEVEL02_TILEPALETTE
 .data          0x084a757c     0x5c40 ../data/Maps//libMaps.a(CHAPTER02_LEVEL03_TILEBANK.o)
                0x084acfbc                CHAPTER02_LEVEL03_TILEPALETTE
                0x084a757c                CHAPTER02_LEVEL03_TILEBANK
 .data          0x084ad1bc     0x31c0 ../data/Maps//libMaps.a(CHAPTER02_LEVEL04_TILEBANK.o)
                0x084ad1bc                CHAPTER02_LEVEL04_TILEBANK
                0x084b017c                CHAPTER02_LEVEL04_TILEPALETTE
 .data          0x084b037c     0xc900 ../data/Maps//libMaps.a(CHAPTER03_LEVEL01_TILEBANK.o)
                0x084bca7c                CHAPTER03_LEVEL01_TILEPALETTE
                0x084b037c                CHAPTER03_LEVEL01_TILEBANK
 .data          0x084bcc7c     0x8a40 ../data/Maps//libMaps.a(CHAPTER03_LEVEL02_TILEBANK.o)
                0x084bcc7c                CHAPTER03_LEVEL02_TILEBANK
                0x084c54bc                CHAPTER03_LEVEL02_TILEPALETTE
 .data          0x084c56bc     0xb900 ../data/Maps//libMaps.a(CHAPTER03_LEVEL03_TILEBANK.o)
                0x084c56bc                CHAPTER03_LEVEL03_TILEBANK
                0x084d0dbc                CHAPTER03_LEVEL03_TILEPALETTE
 .data          0x084d0fbc     0x77c0 ../data/Maps//libMaps.a(CHAPTER03_LEVEL04_TILEBANK.o)
                0x084d0fbc                CHAPTER03_LEVEL04_TILEBANK
                0x084d857c                CHAPTER03_LEVEL04_TILEPALETTE
 .data          0x084d877c     0x6b40 ../data/Maps//libMaps.a(CHAPTER04_LEVEL01_TILEBANK.o)
                0x084d877c                CHAPTER04_LEVEL01_TILEBANK
                0x084df0bc                CHAPTER04_LEVEL01_TILEPALETTE
 .data          0x084df2bc     0xb040 ../data/Maps//libMaps.a(CHAPTER04_LEVEL02_TILEBANK.o)
                0x084ea0fc                CHAPTER04_LEVEL02_TILEPALETTE
                0x084df2bc                CHAPTER04_LEVEL02_TILEBANK
 .data          0x084ea2fc     0x7540 ../data/Maps//libMaps.a(CHAPTER04_LEVEL03_TILEBANK.o)
                0x084ea2fc                CHAPTER04_LEVEL03_TILEBANK
                0x084f163c                CHAPTER04_LEVEL03_TILEPALETTE
 .data          0x084f183c     0xc640 ../data/Maps//libMaps.a(CHAPTER04_LEVEL04_TILEBANK.o)
                0x084fdc7c                CHAPTER04_LEVEL04_TILEPALETTE
                0x084f183c                CHAPTER04_LEVEL04_TILEBANK
 .data          0x084fde7c     0x8680 ../data/Maps//libMaps.a(CHAPTER05_LEVEL01_TILEBANK.o)
                0x085062fc                CHAPTER05_LEVEL01_TILEPALETTE
                0x084fde7c                CHAPTER05_LEVEL01_TILEBANK
 .data          0x085064fc     0x9500 ../data/Maps//libMaps.a(CHAPTER05_LEVEL02_TILEBANK.o)
                0x085064fc                CHAPTER05_LEVEL02_TILEBANK
                0x0850f7fc                CHAPTER05_LEVEL02_TILEPALETTE
 .data          0x0850f9fc     0x9500 ../data/Maps//libMaps.a(CHAPTER05_LEVEL03_TILEBANK.o)
                0x08518cfc                CHAPTER05_LEVEL03_TILEPALETTE
                0x0850f9fc                CHAPTER05_LEVEL03_TILEBANK
 .data          0x08518efc     0x7d80 ../data/Maps//libMaps.a(CHAPTER05_LEVEL04_TILEBANK.o)
                0x08520a7c                CHAPTER05_LEVEL04_TILEPALETTE
                0x08518efc                CHAPTER05_LEVEL04_TILEBANK
 .data          0x08520c7c     0xcb00 ../data/Maps//libMaps.a(CHAPTER06_LEVEL01_TILEBANK.o)
                0x0852d57c                CHAPTER06_LEVEL01_TILEPALETTE
                0x08520c7c                CHAPTER06_LEVEL01_TILEBANK
 .data          0x0852d77c     0x4f80 ../data/Maps//libMaps.a(CHAPTER06_LEVEL03_TILEBANK.o)
                0x0852d77c                CHAPTER06_LEVEL03_TILEBANK
                0x085324fc                CHAPTER06_LEVEL03_TILEPALETTE
 .data          0x085326fc     0x6c80 ../data/Maps//libMaps.a(CHAPTER06_LEVEL05_TILEBANK.o)
                0x0853917c                CHAPTER06_LEVEL05_TILEPALETTE
                0x085326fc                CHAPTER06_LEVEL05_TILEBANK
 *(.data.*)
 *(.gnu.linkonce.d*)

.data1
 *(.data1)

.ctors
 *crtbegin.o(.ctors)
 *(SORT(.ctors.*))
 *(.ctors)

.dtors
 *crtbegin.o(.dtors)
 *(SORT(.dtors.*))
 *(.dtors)

.got
 *(.got.plt)
 *(.got)

.dynamic
 *(.dynamic)

.sdata
 *(.sdata)
                0x0853937c                _edata=.
                0x0853937c                PROVIDE (edata, .)
                0x0853937c                __bss_start=.
                0x0853937c                __bss_start__=.

.sbss
 *(.sbss)
 *(.scommon)

.bss            0x03000000     0x3c40
 *(.dynbss)
 *(.bss)
 .bss           0x03000000       0xe4 Random.o
 .bss           0x030000e4        0x4 Fade.o
 .bss           0x030000e8      0x2d0 ../Sound/out/SoundDat.o
 Main.o(COMMON)
 *fill*         0x030003b8        0x8
 COMMON         0x030003c0     0x21b0 Main.o
                                  0x0 (size before relaxing)
                0x030003c0                map_y_size_pixels_bg1
                0x030003c4                map_ypos
                0x030003c8                pAction_MapWidth
                0x030003cc                gTimer
                0x030003d0                Lives
                0x030003d4                pMid_Map
                0x030003d8                map_x_size_pixels_bg1
                0x030003dc                map_y_size_tiles_bg2
                0x030003e0                map_y_size_tiles_bg1
                0x030003e4                pMid_MapHeight
                0x030003e8                map_x_size_tiles_bg2
                0x030003ec                gKeyTap
                0x030003f0                v_phase
                0x03000400                Bg3_ScreenDat
                0x03000c00                gFade
                0x03000c04                Spatualas
                0x03000c08                pCollision_Map
                0x03000c0c                gGameState
                0x03000c10                rasttable
                0x03000d10                old_map_xpos_bg2
                0x03000d14                pTiles
                0x03000d18                pAction_MapHeight
                0x03000d1c                map_y_size_pixels_bg2
                0x03000d20                pBack_Map
                0x03000d24                map_x_size_tiles_bg1
                0x03000d28                Continues
                0x03000d2c                map_xpos
                0x03000d30                IntrMainBuf
                0x03001530                gGameParams
                0x03001534                old_map_ypos_bg1
                0x03001538                PlatFlag
                0x0300153c                pAction_Map
                0x03001540                pMid_MapWidth
                0x03001550                Bg1_ScreenDat
                0x03001d50                IntrCheck
                0x03001d54                old_map_xpos_bg1
                0x03001d58                old_map_ypos_bg2
                0x03001d60                Bg2_ScreenDat
                0x03002560                Level
                0x03002564                map_x_size_pixels_bg2
                0x03002568                gKeyInput
                0x0300256c                gFadeLevel
 COMMON         0x03002570      0x500 Text_Sys.o
                                  0x0 (size before relaxing)
                0x03002570                ScreenDat
 COMMON         0x03002a70     0x1140 ../Sound/out/m4aLib.o
                                  0x0 (size before relaxing)
                0x03002a70                m4a_sound
                0x03003a20                ExtMPlyJmpTbl
                0x03003ab0                m4a_cgbchn
 COMMON         0x03003bb0       0x90 ../Sound/out/SoundDat.o
                                  0x0 (size before relaxing)
                0x03003bb0                m4a_mplay000
                0x03003bf0                m4a_mplay001
                0x03003c30                m4a_memacc_area

.bss1           0x03003c40        0x0
                0x03003c40                __load_start_bss1=LOADADDR(.bss1)
                0x03003c40                __load_stop_bss1=(LOADADDR(.bss1)+SIZEOF(.bss1))

.bss2           0x03003c40     0x3104 load address 0x03003c40
 Scroll_Engine.o(COMMON)
 Game.o(COMMON)
 COMMON         0x03003c40     0x30dc Game.o
                                  0x0 (size before relaxing)
                0x03003c40                g_pObjectBase
                0x03003c44                numFreeObjects
                0x03003c50                ObjectFreeList
                0x03003de0                IdleSequencer
                0x03003de4                gPushScrollY
                0x03003df0                ObjectOAMBuffer
                0x030045f0                ObjectUsedList
                0x03004780                object_table
                0x03006d00                gSpriteMosaic
                0x03006d04                numUsedObjects
                0x03006d08                pNextFreeObject
                0x03006d0c                gOAMOffset
                0x03006d10                gPushScrollX
                0x03006d14                pNextUsedObject
                0x03006d18                g_pObject
 Titles.o(COMMON)
 *fill*         0x03006d1c        0x4
 COMMON         0x03006d20       0x18 Titles.o
                                  0x0 (size before relaxing)
                0x03006d20                temp
                0x03006d24                Title
                0x03006d28                mapyoffset
                0x03006d2c                mapxoffset
                0x03006d30                Password_Buffer
 StartUp.o(COMMON)
 COMMON         0x03006d38        0xc StartUp.o
                                  0x0 (size before relaxing)
                0x03006d38                ScreenDelay
                0x03006d3c                CurrentScreen
                0x03006d40                CanSkip
                0x03003c40                __load_start_bss2=LOADADDR(.bss2)
                0x03006d44                __load_stop_bss2=(LOADADDR(.bss2)+SIZEOF(.bss2))
                0x03006d44                .=(ADDR(.bss1)+(SIZEOF(.bss1)7SIZEOF(.bss2)))
                0x03006d44                .=ALIGN(0x4)
                0x03006d44                _end=.
                0x03006d44                _bss_end__=.
                0x03006d44                __bss_end__=.
                0x03006d44                PROVIDE (end, .)

.stab
 *(.stab)

.stabstr
 *(.stabstr)

.stab.excl
 *(.stab.excl)

.stab.exclstr
 *(.stab.exclstr)

.stab.index
 *(.stab.index)

.stab.indexstr
 *(.stab.indexstr)

.comment
 *(.comment)

.debug
 *(.debug)

.line
 *(.line)

.debug_srcinfo
 *(.debug_srcinfo)

.debug_sfnames
 *(.debug_sfnames)

.debug_aranges  0x00000000      0x2a0
 *(.debug_aranges)
 .debug_aranges
                0x00000000       0x20 Main.o
 .debug_aranges
                0x00000020       0x20 Game.o
 .debug_aranges
                0x00000040       0x20 Titles.o
 .debug_aranges
                0x00000060       0x20 Random.o
 .debug_aranges
                0x00000080       0x20 StartUp.o
 .debug_aranges
                0x000000a0       0x20 Scroll_Engine.o
 .debug_aranges
                0x000000c0       0x20 SprEng_Control.o
 .debug_aranges
                0x000000e0       0x20 SprEng_Animate.o
 .debug_aranges
                0x00000100       0x20 SprEng_Display.o
 .debug_aranges
                0x00000120       0x20 SprEng_Common.o
 .debug_aranges
                0x00000140       0x20 SprEng_SpongeBob.o
 .debug_aranges
                0x00000160       0x20 SprEng_NPC.o
 .debug_aranges
                0x00000180       0x20 SprEng_Platforms.o
 .debug_aranges
                0x000001a0       0x20 SprEng_Monsters.o
 .debug_aranges
                0x000001c0       0x20 Sinecos.o
 .debug_aranges
                0x000001e0       0x20 Contours.o
 .debug_aranges
                0x00000200       0x20 Text_Sys.o
 .debug_aranges
                0x00000220       0x20 Collision.o
 .debug_aranges
                0x00000240       0x20 Hub.o
 .debug_aranges
                0x00000260       0x20 Fade.o
 .debug_aranges
                0x00000280       0x20 C:\PROGRA~1\Cygnus\thumbelf-000512\H-i686-cygwin32\bin/../lib/gcc-lib/thumb-elf/2.9-arm-000512/../../../../thumb-elf/lib/libg.a(strlen.o)

.debug_pubnames
                0x00000000    0x13927
 *(.debug_pubnames)
 .debug_pubnames
                0x00000000      0x342 Main.o
 .debug_pubnames
                0x00000342      0x401 Game.o
 .debug_pubnames
                0x00000743      0x301 Titles.o
 .debug_pubnames
                0x00000a44       0x81 Random.o
 .debug_pubnames
                0x00000ac5      0x2cd StartUp.o
 .debug_pubnames
                0x00000d92      0x337 Scroll_Engine.o
 .debug_pubnames
                0x000010c9      0x20b SprEng_Control.o
 .debug_pubnames
                0x000012d4      0x8bb SprEng_Animate.o
 .debug_pubnames
                0x00001b8f      0x39f SprEng_Display.o
 .debug_pubnames
                0x00001f2e      0x3b3 SprEng_Common.o
 .debug_pubnames
                0x000022e1      0x384 SprEng_SpongeBob.o
 .debug_pubnames
                0x00002665      0x384 SprEng_NPC.o
 .debug_pubnames
                0x000029e9      0x384 SprEng_Platforms.o
 .debug_pubnames
                0x00002d6d      0x384 SprEng_Monsters.o
 .debug_pubnames
                0x000030f1       0x9d Sinecos.o
 .debug_pubnames
                0x0000318e      0x3ff Contours.o
 .debug_pubnames
                0x0000358d      0x374 Text_Sys.o
 .debug_pubnames
                0x00003901      0x396 Collision.o
 .debug_pubnames
                0x00003c97      0x35b Hub.o
 .debug_pubnames
                0x00003ff2      0x29a Fade.o
 .debug_pubnames
                0x0000428c       0x55 ../data/Titles//libTitlesGFX.a(Start_Copy.o)
 .debug_pubnames
                0x000042e1       0x52 ../data/Titles//libTitlesGFX.a(Start_THQ.o)
 .debug_pubnames
                0x00004333       0x55 ../data/Titles//libTitlesGFX.a(Start_Nick.o)
 .debug_pubnames
                0x00004388       0x5b ../data/Titles//libTitlesGFX.a(Start_Climax.o)
 .debug_pubnames
                0x000043e3       0x27 ../data/Titles//libTitlesGFX.a(libFontGame.o)
 .debug_pubnames
                0x0000440a       0x27 ../data/Titles//libTitlesGFX.a(libFontMenu.o)
 .debug_pubnames
                0x00004431       0x4f ../data/Titles//libTitlesGFX.a(menuback.o)
 .debug_pubnames
                0x00004480       0x49 ../data/Titles//libTitlesGFX.a(HubMap.o)
 .debug_pubnames
                0x000044c9       0x49 ../data/Titles//libTitlesGFX.a(menul2.o)
 .debug_pubnames
                0x00004512       0x52 ../data/Titles//libTitlesGFX.a(menuback2.o)
 .debug_pubnames
                0x00004564       0x52 ../data/Titles//libTitlesGFX.a(menuback3.o)
 .debug_pubnames
                0x000045b6       0x52 ../data/Titles//libTitlesGFX.a(menuback4.o)
 .debug_pubnames
                0x00004608       0x52 ../data/Titles//libTitlesGFX.a(menuback5.o)
 .debug_pubnames
                0x0000465a       0x52 ../data/Titles//libTitlesGFX.a(menuback6.o)
 .debug_pubnames
                0x000046ac       0x21 ../data/Titles//libTitlesGFX.a(icons.o)
 .debug_pubnames
                0x000046cd      0x1b4 ../data/Maps//libMaps.a(CHAPTER01_LEVEL0101.o)
 .debug_pubnames
                0x00004881      0x1b4 ../data/Maps//libMaps.a(CHAPTER01_LEVEL0102.o)
 .debug_pubnames
                0x00004a35      0x1b4 ../data/Maps//libMaps.a(CHAPTER01_LEVEL0103.o)
 .debug_pubnames
                0x00004be9      0x1b4 ../data/Maps//libMaps.a(CHAPTER01_LEVEL0104.o)
 .debug_pubnames
                0x00004d9d      0x1b4 ../data/Maps//libMaps.a(CHAPTER01_LEVEL0105.o)
 .debug_pubnames
                0x00004f51      0x1b4 ../data/Maps//libMaps.a(CHAPTER01_LEVEL0201.o)
 .debug_pubnames
                0x00005105      0x1b4 ../data/Maps//libMaps.a(CHAPTER01_LEVEL0204.o)
 .debug_pubnames
                0x000052b9      0x1b4 ../data/Maps//libMaps.a(CHAPTER01_LEVEL0301.o)
 .debug_pubnames
                0x0000546d      0x1b4 ../data/Maps//libMaps.a(CHAPTER01_LEVEL0302.o)
 .debug_pubnames
                0x00005621      0x1b4 ../data/Maps//libMaps.a(CHAPTER01_LEVEL0303.o)
 .debug_pubnames
                0x000057d5      0x1b4 ../data/Maps//libMaps.a(CHAPTER01_LEVEL0401.o)
 .debug_pubnames
                0x00005989      0x1b4 ../data/Maps//libMaps.a(CHAPTER02_LEVEL0101.o)
 .debug_pubnames
                0x00005b3d      0x1b4 ../data/Maps//libMaps.a(CHAPTER02_LEVEL0102.o)
 .debug_pubnames
                0x00005cf1      0x1b4 ../data/Maps//libMaps.a(CHAPTER02_LEVEL0103.o)
 .debug_pubnames
                0x00005ea5      0x1b4 ../data/Maps//libMaps.a(CHAPTER02_LEVEL0104.o)
 .debug_pubnames
                0x00006059      0x1b4 ../data/Maps//libMaps.a(CHAPTER02_LEVEL0105.o)
 .debug_pubnames
                0x0000620d      0x1b4 ../data/Maps//libMaps.a(CHAPTER02_LEVEL0106.o)
 .debug_pubnames
                0x000063c1      0x1b4 ../data/Maps//libMaps.a(CHAPTER02_LEVEL0107.o)
 .debug_pubnames
                0x00006575      0x1b4 ../data/Maps//libMaps.a(CHAPTER02_LEVEL0108.o)
 .debug_pubnames
                0x00006729      0x1b4 ../data/Maps//libMaps.a(CHAPTER02_LEVEL0201.o)
 .debug_pubnames
                0x000068dd      0x1b4 ../data/Maps//libMaps.a(CHAPTER02_LEVEL0202.o)
 .debug_pubnames
                0x00006a91      0x1b4 ../data/Maps//libMaps.a(CHAPTER02_LEVEL0203.o)
 .debug_pubnames
                0x00006c45      0x1b4 ../data/Maps//libMaps.a(CHAPTER02_LEVEL0204.o)
 .debug_pubnames
                0x00006df9      0x1b4 ../data/Maps//libMaps.a(CHAPTER02_LEVEL0301.o)
 .debug_pubnames
                0x00006fad      0x1b4 ../data/Maps//libMaps.a(CHAPTER02_LEVEL0302.o)
 .debug_pubnames
                0x00007161      0x1b4 ../data/Maps//libMaps.a(CHAPTER02_LEVEL0303.o)
 .debug_pubnames
                0x00007315      0x1b4 ../data/Maps//libMaps.a(CHAPTER02_LEVEL0304.o)
 .debug_pubnames
                0x000074c9      0x1b4 ../data/Maps//libMaps.a(CHAPTER02_LEVEL0305.o)
 .debug_pubnames
                0x0000767d      0x1b4 ../data/Maps//libMaps.a(CHAPTER02_LEVEL0306.o)
 .debug_pubnames
                0x00007831      0x1b4 ../data/Maps//libMaps.a(CHAPTER02_LEVEL0401.o)
 .debug_pubnames
                0x000079e5      0x1b4 ../data/Maps//libMaps.a(CHAPTER02_LEVEL0402.o)
 .debug_pubnames
                0x00007b99      0x1b4 ../data/Maps//libMaps.a(CHAPTER02_LEVEL0403.o)
 .debug_pubnames
                0x00007d4d      0x1b4 ../data/Maps//libMaps.a(CHAPTER02_LEVEL0404.o)
 .debug_pubnames
                0x00007f01      0x1b4 ../data/Maps//libMaps.a(CHAPTER02_LEVEL0405.o)
 .debug_pubnames
                0x000080b5      0x1b4 ../data/Maps//libMaps.a(CHAPTER03_LEVEL0101.o)
 .debug_pubnames
                0x00008269      0x1b4 ../data/Maps//libMaps.a(CHAPTER03_LEVEL0102.o)
 .debug_pubnames
                0x0000841d      0x1b4 ../data/Maps//libMaps.a(CHAPTER03_LEVEL0103.o)
 .debug_pubnames
                0x000085d1      0x1b4 ../data/Maps//libMaps.a(CHAPTER03_LEVEL0104.o)
 .debug_pubnames
                0x00008785      0x1b4 ../data/Maps//libMaps.a(CHAPTER03_LEVEL0105.o)
 .debug_pubnames
                0x00008939      0x1b4 ../data/Maps//libMaps.a(CHAPTER03_LEVEL0106.o)
 .debug_pubnames
                0x00008aed      0x1b4 ../data/Maps//libMaps.a(CHAPTER03_LEVEL0107.o)
 .debug_pubnames
                0x00008ca1      0x1b4 ../data/Maps//libMaps.a(CHAPTER03_LEVEL0201.o)
 .debug_pubnames
                0x00008e55      0x1b4 ../data/Maps//libMaps.a(CHAPTER03_LEVEL0202.o)
 .debug_pubnames
                0x00009009      0x1b4 ../data/Maps//libMaps.a(CHAPTER03_LEVEL0203.o)
 .debug_pubnames
                0x000091bd      0x1b4 ../data/Maps//libMaps.a(CHAPTER03_LEVEL0204.o)
 .debug_pubnames
                0x00009371      0x1b4 ../data/Maps//libMaps.a(CHAPTER03_LEVEL0205.o)
 .debug_pubnames
                0x00009525      0x1b4 ../data/Maps//libMaps.a(CHAPTER03_LEVEL0206.o)
 .debug_pubnames
                0x000096d9      0x1b4 ../data/Maps//libMaps.a(CHAPTER03_LEVEL0207.o)
 .debug_pubnames
                0x0000988d      0x1b4 ../data/Maps//libMaps.a(CHAPTER03_LEVEL0301.o)
 .debug_pubnames
                0x00009a41      0x1b4 ../data/Maps//libMaps.a(CHAPTER03_LEVEL0302.o)
 .debug_pubnames
                0x00009bf5      0x1b4 ../data/Maps//libMaps.a(CHAPTER03_LEVEL0303.o)
 .debug_pubnames
                0x00009da9      0x1b4 ../data/Maps//libMaps.a(CHAPTER03_LEVEL0304.o)
 .debug_pubnames
                0x00009f5d      0x1b4 ../data/Maps//libMaps.a(CHAPTER03_LEVEL0305.o)
 .debug_pubnames
                0x0000a111      0x1b4 ../data/Maps//libMaps.a(CHAPTER03_LEVEL0306.o)
 .debug_pubnames
                0x0000a2c5      0x1b4 ../data/Maps//libMaps.a(CHAPTER03_LEVEL0401.o)
 .debug_pubnames
                0x0000a479      0x1b4 ../data/Maps//libMaps.a(CHAPTER03_LEVEL0402.o)
 .debug_pubnames
                0x0000a62d      0x1b4 ../data/Maps//libMaps.a(CHAPTER03_LEVEL0403.o)
 .debug_pubnames
                0x0000a7e1      0x1b4 ../data/Maps//libMaps.a(CHAPTER03_LEVEL0404.o)
 .debug_pubnames
                0x0000a995      0x1b4 ../data/Maps//libMaps.a(CHAPTER03_LEVEL0405.o)
 .debug_pubnames
                0x0000ab49      0x1b4 ../data/Maps//libMaps.a(CHAPTER03_LEVEL0406.o)
 .debug_pubnames
                0x0000acfd      0x1b4 ../data/Maps//libMaps.a(CHAPTER04_LEVEL0101.o)
 .debug_pubnames
                0x0000aeb1      0x1b4 ../data/Maps//libMaps.a(CHAPTER04_LEVEL0102.o)
 .debug_pubnames
                0x0000b065      0x1b4 ../data/Maps//libMaps.a(CHAPTER04_LEVEL0103.o)
 .debug_pubnames
                0x0000b219      0x1b4 ../data/Maps//libMaps.a(CHAPTER04_LEVEL0104.o)
 .debug_pubnames
                0x0000b3cd      0x1b4 ../data/Maps//libMaps.a(CHAPTER04_LEVEL0201.o)
 .debug_pubnames
                0x0000b581      0x1b4 ../data/Maps//libMaps.a(CHAPTER04_LEVEL0202.o)
 .debug_pubnames
                0x0000b735      0x1b4 ../data/Maps//libMaps.a(CHAPTER04_LEVEL0203.o)
 .debug_pubnames
                0x0000b8e9      0x1b4 ../data/Maps//libMaps.a(CHAPTER04_LEVEL0204.o)
 .debug_pubnames
                0x0000ba9d      0x1b4 ../data/Maps//libMaps.a(CHAPTER04_LEVEL0205.o)
 .debug_pubnames
                0x0000bc51      0x1b4 ../data/Maps//libMaps.a(CHAPTER04_LEVEL0301.o)
 .debug_pubnames
                0x0000be05      0x1b4 ../data/Maps//libMaps.a(CHAPTER04_LEVEL0302.o)
 .debug_pubnames
                0x0000bfb9      0x1b4 ../data/Maps//libMaps.a(CHAPTER04_LEVEL0303.o)
 .debug_pubnames
                0x0000c16d      0x1b4 ../data/Maps//libMaps.a(CHAPTER04_LEVEL0304.o)
 .debug_pubnames
                0x0000c321      0x1b4 ../data/Maps//libMaps.a(CHAPTER04_LEVEL0305.o)
 .debug_pubnames
                0x0000c4d5      0x1b4 ../data/Maps//libMaps.a(CHAPTER04_LEVEL0306.o)
 .debug_pubnames
                0x0000c689      0x1b4 ../data/Maps//libMaps.a(CHAPTER04_LEVEL0401.o)
 .debug_pubnames
                0x0000c83d      0x1b4 ../data/Maps//libMaps.a(CHAPTER04_LEVEL0402.o)
 .debug_pubnames
                0x0000c9f1      0x1b4 ../data/Maps//libMaps.a(CHAPTER04_LEVEL0403.o)
 .debug_pubnames
                0x0000cba5      0x1b4 ../data/Maps//libMaps.a(CHAPTER04_LEVEL0404.o)
 .debug_pubnames
                0x0000cd59      0x1b4 ../data/Maps//libMaps.a(CHAPTER04_LEVEL0405.o)
 .debug_pubnames
                0x0000cf0d      0x1b4 ../data/Maps//libMaps.a(CHAPTER04_LEVEL0406.o)
 .debug_pubnames
                0x0000d0c1      0x1b4 ../data/Maps//libMaps.a(CHAPTER04_LEVEL0407.o)
 .debug_pubnames
                0x0000d275      0x1b4 ../data/Maps//libMaps.a(CHAPTER05_LEVEL0101.o)
 .debug_pubnames
                0x0000d429      0x1b4 ../data/Maps//libMaps.a(CHAPTER05_LEVEL0102.o)
 .debug_pubnames
                0x0000d5dd      0x1b4 ../data/Maps//libMaps.a(CHAPTER05_LEVEL0103.o)
 .debug_pubnames
                0x0000d791      0x1b4 ../data/Maps//libMaps.a(CHAPTER05_LEVEL0201.o)
 .debug_pubnames
                0x0000d945      0x1b4 ../data/Maps//libMaps.a(CHAPTER05_LEVEL0202.o)
 .debug_pubnames
                0x0000daf9      0x1b4 ../data/Maps//libMaps.a(CHAPTER05_LEVEL0203.o)
 .debug_pubnames
                0x0000dcad      0x1b4 ../data/Maps//libMaps.a(CHAPTER05_LEVEL0204.o)
 .debug_pubnames
                0x0000de61      0x1b4 ../data/Maps//libMaps.a(CHAPTER05_LEVEL0301.o)
 .debug_pubnames
                0x0000e015      0x1b4 ../data/Maps//libMaps.a(CHAPTER05_LEVEL0302.o)
 .debug_pubnames
                0x0000e1c9      0x1b4 ../data/Maps//libMaps.a(CHAPTER05_LEVEL0303.o)
 .debug_pubnames
                0x0000e37d      0x1b4 ../data/Maps//libMaps.a(CHAPTER05_LEVEL0304.o)
 .debug_pubnames
                0x0000e531      0x1b4 ../data/Maps//libMaps.a(CHAPTER05_LEVEL0305.o)
 .debug_pubnames
                0x0000e6e5      0x1b4 ../data/Maps//libMaps.a(CHAPTER05_LEVEL0401.o)
 .debug_pubnames
                0x0000e899      0x1b4 ../data/Maps//libMaps.a(CHAPTER05_LEVEL0402.o)
 .debug_pubnames
                0x0000ea4d      0x1b4 ../data/Maps//libMaps.a(CHAPTER05_LEVEL0403.o)
 .debug_pubnames
                0x0000ec01      0x1b4 ../data/Maps//libMaps.a(CHAPTER05_LEVEL0404.o)
 .debug_pubnames
                0x0000edb5      0x1b4 ../data/Maps//libMaps.a(CHAPTER05_LEVEL0405.o)
 .debug_pubnames
                0x0000ef69      0x1b4 ../data/Maps//libMaps.a(CHAPTER05_LEVEL0406.o)
 .debug_pubnames
                0x0000f11d      0x1b4 ../data/Maps//libMaps.a(CHAPTER05_LEVEL0407.o)
 .debug_pubnames
                0x0000f2d1      0x1b4 ../data/Maps//libMaps.a(CHAPTER05_LEVEL0408.o)
 .debug_pubnames
                0x0000f485      0x1b4 ../data/Maps//libMaps.a(CHAPTER06_LEVEL0101.o)
 .debug_pubnames
                0x0000f639      0x1b4 ../data/Maps//libMaps.a(CHAPTER06_LEVEL0102.o)
 .debug_pubnames
                0x0000f7ed      0x1b4 ../data/Maps//libMaps.a(CHAPTER06_LEVEL0301.o)
 .debug_pubnames
                0x0000f9a1      0x1b4 ../data/Maps//libMaps.a(CHAPTER06_LEVEL0302.o)
 .debug_pubnames
                0x0000fb55      0x1b4 ../data/Maps//libMaps.a(CHAPTER06_LEVEL0501.o)
 .debug_pubnames
                0x0000fd09      0x1b4 ../data/Maps//libMaps.a(CHAPTER06_LEVEL0502.o)
 .debug_pubnames
                0x0000febd      0x1b4 ../data/Maps//libMaps.a(CHAPTER06_LEVEL0503.o)
 .debug_pubnames
                0x00010071      0x1b4 ../data/Maps//libMaps.a(CHAPTER06_LEVEL0504.o)
 .debug_pubnames
                0x00010225      0x1b4 ../data/Maps//libMaps.a(CHAPTER06_LEVEL0505.o)
 .debug_pubnames
                0x000103d9       0x53 ../data/Maps//libMaps.a(CHAPTER01_LEVEL01_TILEBANK.o)
 .debug_pubnames
                0x0001042c       0x53 ../data/Maps//libMaps.a(CHAPTER01_LEVEL02_TILEBANK.o)
 .debug_pubnames
                0x0001047f       0x53 ../data/Maps//libMaps.a(CHAPTER01_LEVEL03_TILEBANK.o)
 .debug_pubnames
                0x000104d2       0x53 ../data/Maps//libMaps.a(CHAPTER01_LEVEL04_TILEBANK.o)
 .debug_pubnames
                0x00010525       0x53 ../data/Maps//libMaps.a(CHAPTER02_LEVEL01_TILEBANK.o)
 .debug_pubnames
                0x00010578       0x53 ../data/Maps//libMaps.a(CHAPTER02_LEVEL02_TILEBANK.o)
 .debug_pubnames
                0x000105cb       0x53 ../data/Maps//libMaps.a(CHAPTER02_LEVEL03_TILEBANK.o)
 .debug_pubnames
                0x0001061e       0x53 ../data/Maps//libMaps.a(CHAPTER02_LEVEL04_TILEBANK.o)
 .debug_pubnames
                0x00010671       0x53 ../data/Maps//libMaps.a(CHAPTER03_LEVEL01_TILEBANK.o)
 .debug_pubnames
                0x000106c4       0x53 ../data/Maps//libMaps.a(CHAPTER03_LEVEL02_TILEBANK.o)
 .debug_pubnames
                0x00010717       0x53 ../data/Maps//libMaps.a(CHAPTER03_LEVEL03_TILEBANK.o)
 .debug_pubnames
                0x0001076a       0x53 ../data/Maps//libMaps.a(CHAPTER03_LEVEL04_TILEBANK.o)
 .debug_pubnames
                0x000107bd       0x53 ../data/Maps//libMaps.a(CHAPTER04_LEVEL01_TILEBANK.o)
 .debug_pubnames
                0x00010810       0x53 ../data/Maps//libMaps.a(CHAPTER04_LEVEL02_TILEBANK.o)
 .debug_pubnames
                0x00010863       0x53 ../data/Maps//libMaps.a(CHAPTER04_LEVEL03_TILEBANK.o)
 .debug_pubnames
                0x000108b6       0x53 ../data/Maps//libMaps.a(CHAPTER04_LEVEL04_TILEBANK.o)
 .debug_pubnames
                0x00010909       0x53 ../data/Maps//libMaps.a(CHAPTER05_LEVEL01_TILEBANK.o)
 .debug_pubnames
                0x0001095c       0x53 ../data/Maps//libMaps.a(CHAPTER05_LEVEL02_TILEBANK.o)
 .debug_pubnames
                0x000109af       0x53 ../data/Maps//libMaps.a(CHAPTER05_LEVEL03_TILEBANK.o)
 .debug_pubnames
                0x00010a02       0x53 ../data/Maps//libMaps.a(CHAPTER05_LEVEL04_TILEBANK.o)
 .debug_pubnames
                0x00010a55       0x53 ../data/Maps//libMaps.a(CHAPTER06_LEVEL01_TILEBANK.o)
 .debug_pubnames
                0x00010aa8       0x53 ../data/Maps//libMaps.a(CHAPTER06_LEVEL03_TILEBANK.o)
 .debug_pubnames
                0x00010afb       0x53 ../data/Maps//libMaps.a(CHAPTER06_LEVEL05_TILEBANK.o)
 .debug_pubnames
                0x00010b4e       0x30 ../data/Sprites/SpongeBob//libSpongeBob_Sprs.a(buttbounceend0001_RL.o)
 .debug_pubnames
                0x00010b7e       0x30 ../data/Sprites/SpongeBob//libSpongeBob_Sprs.a(buttbounceend0003_RL.o)
 .debug_pubnames
                0x00010bae       0x30 ../data/Sprites/SpongeBob//libSpongeBob_Sprs.a(buttbounceend0005_RL.o)
 .debug_pubnames
                0x00010bde       0x30 ../data/Sprites/SpongeBob//libSpongeBob_Sprs.a(buttbounceend0007_RL.o)
 .debug_pubnames
                0x00010c0e       0x32 ../data/Sprites/SpongeBob//libSpongeBob_Sprs.a(buttbouncestart0001_RL.o)
 .debug_pubnames
                0x00010c40       0x32 ../data/Sprites/SpongeBob//libSpongeBob_Sprs.a(buttbouncestart0003_RL.o)
 .debug_pubnames
                0x00010c72       0x32 ../data/Sprites/SpongeBob//libSpongeBob_Sprs.a(buttbouncestart0005_RL.o)
 .debug_pubnames
                0x00010ca4       0x32 ../data/Sprites/SpongeBob//libSpongeBob_Sprs.a(buttbouncestart0007_RL.o)
 .debug_pubnames
                0x00010cd6       0x31 ../data/Sprites/SpongeBob//libSpongeBob_Sprs.a(deathbackwards0001_RL.o)
 .debug_pubnames
                0x00010d07       0x31 ../data/Sprites/SpongeBob//libSpongeBob_Sprs.a(deathbackwards0003_RL.o)
 .debug_pubnames
                0x00010d38       0x31 ../data/Sprites/SpongeBob//libSpongeBob_Sprs.a(deathbackwards0005_RL.o)
 .debug_pubnames
                0x00010d69       0x31 ../data/Sprites/SpongeBob//libSpongeBob_Sprs.a(deathbackwards0007_RL.o)
 .debug_pubnames
                0x00010d9a       0x31 ../data/Sprites/SpongeBob//libSpongeBob_Sprs.a(deathbackwards0009_RL.o)
 .debug_pubnames
                0x00010dcb       0x31 ../data/Sprites/SpongeBob//libSpongeBob_Sprs.a(deathbackwards0011_RL.o)
 .debug_pubnames
                0x00010dfc       0x31 ../data/Sprites/SpongeBob//libSpongeBob_Sprs.a(deathbackwards0013_RL.o)
 .debug_pubnames
                0x00010e2d       0x31 ../data/Sprites/SpongeBob//libSpongeBob_Sprs.a(deathbackwards0015_RL.o)
 .debug_pubnames
                0x00010e5e       0x2b ../data/Sprites/SpongeBob//libSpongeBob_Sprs.a(deathdry0001_RL.o)
 .debug_pubnames
                0x00010e89       0x2b ../data/Sprites/SpongeBob//libSpongeBob_Sprs.a(deathdry0003_RL.o)
 .debug_pubnames
                0x00010eb4       0x2b ../data/Sprites/SpongeBob//libSpongeBob_Sprs.a(deathdry0005_RL.o)
 .debug_pubnames
                0x00010edf       0x2b ../data/Sprites/SpongeBob//libSpongeBob_Sprs.a(deathdry0007_RL.o)
 .debug_pubnames
                0x00010f0a       0x2b ../data/Sprites/SpongeBob//libSpongeBob_Sprs.a(deathdry0009_RL.o)
 .debug_pubnames
                0x00010f35       0x2b ../data/Sprites/SpongeBob//libSpongeBob_Sprs.a(deathdry0011_RL.o)
 .debug_pubnames
                0x00010f60       0x2b ../data/Sprites/SpongeBob//libSpongeBob_Sprs.a(deathdry0013_RL.o)
 .debug_pubnames
                0x00010f8b       0x2b ../data/Sprites/SpongeBob//libSpongeBob_Sprs.a(deathdry0015_RL.o)
 .debug_pubnames
                0x00010fb6       0x30 ../data/Sprites/SpongeBob//libSpongeBob_Sprs.a(deathforwards0001_RL.o)
 .debug_pubnames
                0x00010fe6       0x30 ../data/Sprites/SpongeBob//libSpongeBob_Sprs.a(deathforwards0003_RL.o)
 .debug_pubnames
                0x00011016       0x30 ../data/Sprites/SpongeBob//libSpongeBob_Sprs.a(deathforwards0005_RL.o)
 .debug_pubnames
                0x00011046       0x30 ../data/Sprites/SpongeBob//libSpongeBob_Sprs.a(deathforwards0007_RL.o)
 .debug_pubnames
                0x00011076       0x30 ../data/Sprites/SpongeBob//libSpongeBob_Sprs.a(deathforwards0009_RL.o)
 .debug_pubnames
                0x000110a6       0x30 ../data/Sprites/SpongeBob//libSpongeBob_Sprs.a(deathforwards0011_RL.o)
 .debug_pubnames
                0x000110d6       0x30 ../data/Sprites/SpongeBob//libSpongeBob_Sprs.a(deathforwards0013_RL.o)
 .debug_pubnames
                0x00011106       0x30 ../data/Sprites/SpongeBob//libSpongeBob_Sprs.a(deathforwards0015_RL.o)
 .debug_pubnames
                0x00011136       0x2c ../data/Sprites/SpongeBob//libSpongeBob_Sprs.a(deathspin0001_RL.o)
 .debug_pubnames
                0x00011162       0x2c ../data/Sprites/SpongeBob//libSpongeBob_Sprs.a(deathspin0003_RL.o)
 .debug_pubnames
                0x0001118e       0x2c ../data/Sprites/SpongeBob//libSpongeBob_Sprs.a(deathspin0005_RL.o)
 .debug_pubnames
                0x000111ba       0x2c ../data/Sprites/SpongeBob//libSpongeBob_Sprs.a(deathspin0007_RL.o)
 .debug_pubnames
                0x000111e6       0x2c ../data/Sprites/SpongeBob//libSpongeBob_Sprs.a(deathspin0009_RL.o)
 .debug_pubnames
                0x00011212       0x2c ../data/Sprites/SpongeBob//libSpongeBob_Sprs.a(deathspin0011_RL.o)
 .debug_pubnames
                0x0001123e       0x2c ../data/Sprites/SpongeBob//libSpongeBob_Sprs.a(deathspin0013_RL.o)
 .debug_pubnames
                0x0001126a       0x2c ../data/Sprites/SpongeBob//libSpongeBob_Sprs.a(deathspin0015_RL.o)
 .debug_pubnames
                0x00011296       0x2e ../data/Sprites/SpongeBob//libSpongeBob_Sprs.a(deathsquash0001_RL.o)
 .debug_pubnames
                0x000112c4       0x2e ../data/Sprites/SpongeBob//libSpongeBob_Sprs.a(deathsquash0003_RL.o)
 .debug_pubnames
                0x000112f2       0x2e ../data/Sprites/SpongeBob//libSpongeBob_Sprs.a(deathsquash0005_RL.o)
 .debug_pubnames
                0x00011320       0x2e ../data/Sprites/SpongeBob//libSpongeBob_Sprs.a(deathsquash0007_RL.o)
 .debug_pubnames
                0x0001134e       0x2e ../data/Sprites/SpongeBob//libSpongeBob_Sprs.a(deathsquash0009_RL.o)
 .debug_pubnames
                0x0001137c       0x2e ../data/Sprites/SpongeBob//libSpongeBob_Sprs.a(deathsquash0011_RL.o)
 .debug_pubnames
                0x000113aa       0x2e ../data/Sprites/SpongeBob//libSpongeBob_Sprs.a(deathsquash0013_RL.o)
 .debug_pubnames
                0x000113d8       0x2e ../data/Sprites/SpongeBob//libSpongeBob_Sprs.a(deathsquash0015_RL.o)
 .debug_pubnames
                0x00011406       0x2b ../data/Sprites/SpongeBob//libSpongeBob_Sprs.a(deathtar0001_RL.o)
 .debug_pubnames
                0x00011431       0x2b ../data/Sprites/SpongeBob//libSpongeBob_Sprs.a(deathtar0003_RL.o)
 .debug_pubnames
                0x0001145c       0x2b ../data/Sprites/SpongeBob//libSpongeBob_Sprs.a(deathtar0005_RL.o)
 .debug_pubnames
                0x00011487       0x2b ../data/Sprites/SpongeBob//libSpongeBob_Sprs.a(deathtar0007_RL.o)
 .debug_pubnames
                0x000114b2       0x30 ../data/Sprites/SpongeBob//libSpongeBob_Sprs.a(deathtarstart0001_RL.o)
 .debug_pubnames
                0x000114e2       0x30 ../data/Sprites/SpongeBob//libSpongeBob_Sprs.a(deathtarstart0003_RL.o)
 .debug_pubnames
                0x00011512       0x30 ../data/Sprites/SpongeBob//libSpongeBob_Sprs.a(deathtarstart0005_RL.o)
 .debug_pubnames
                0x00011542       0x30 ../data/Sprites/SpongeBob//libSpongeBob_Sprs.a(deathtarstart0007_RL.o)
 .debug_pubnames
                0x00011572       0x30 ../data/Sprites/SpongeBob//libSpongeBob_Sprs.a(electricshock0001_RL.o)
 .debug_pubnames
                0x000115a2       0x30 ../data/Sprites/SpongeBob//libSpongeBob_Sprs.a(electricshock0003_RL.o)
 .debug_pubnames
                0x000115d2       0x30 ../data/Sprites/SpongeBob//libSpongeBob_Sprs.a(electricshock0005_RL.o)
 .debug_pubnames
                0x00011602       0x30 ../data/Sprites/SpongeBob//libSpongeBob_Sprs.a(electricshock0007_RL.o)
 .debug_pubnames
                0x00011632       0x33 ../data/Sprites/SpongeBob//libSpongeBob_Sprs.a(electricshockend0000_RL.o)
 .debug_pubnames
                0x00011665       0x33 ../data/Sprites/SpongeBob//libSpongeBob_Sprs.a(electricshockend0001_RL.o)
 .debug_pubnames
                0x00011698       0x35 ../data/Sprites/SpongeBob//libSpongeBob_Sprs.a(electricshockstart0000_RL.o)
 .debug_pubnames
                0x000116cd       0x35 ../data/Sprites/SpongeBob//libSpongeBob_Sprs.a(electricshockstart0001_RL.o)
 .debug_pubnames
                0x00011702       0x2b ../data/Sprites/SpongeBob//libSpongeBob_Sprs.a(faceback0001_RL.o)
 .debug_pubnames
                0x0001172d       0x2b ../data/Sprites/SpongeBob//libSpongeBob_Sprs.a(faceback0003_RL.o)
 .debug_pubnames
                0x00011758       0x2b ../data/Sprites/SpongeBob//libSpongeBob_Sprs.a(faceback0005_RL.o)
 .debug_pubnames
                0x00011783       0x2b ../data/Sprites/SpongeBob//libSpongeBob_Sprs.a(faceback0007_RL.o)
 .debug_pubnames
                0x000117ae       0x2c ../data/Sprites/SpongeBob//libSpongeBob_Sprs.a(facefront0000_RL.o)
 .debug_pubnames
                0x000117da       0x2c ../data/Sprites/SpongeBob//libSpongeBob_Sprs.a(facefront0001_RL.o)
 .debug_pubnames
                0x00011806       0x27 ../data/Sprites/SpongeBob//libSpongeBob_Sprs.a(fall0001_RL.o)
 .debug_pubnames
                0x0001182d       0x27 ../data/Sprites/SpongeBob//libSpongeBob_Sprs.a(fall0003_RL.o)
 .debug_pubnames
                0x00011854       0x27 ../data/Sprites/SpongeBob//libSpongeBob_Sprs.a(fall0005_RL.o)
 .debug_pubnames
                0x0001187b       0x2a ../data/Sprites/SpongeBob//libSpongeBob_Sprs.a(fireend0000_RL.o)
 .debug_pubnames
                0x000118a5       0x2a ../data/Sprites/SpongeBob//libSpongeBob_Sprs.a(fireend0001_RL.o)
 .debug_pubnames
                0x000118cf       0x2c ../data/Sprites/SpongeBob//libSpongeBob_Sprs.a(firestart0000_RL.o)
 .debug_pubnames
                0x000118fb       0x2c ../data/Sprites/SpongeBob//libSpongeBob_Sprs.a(firestart0001_RL.o)
 .debug_pubnames
                0x00011927       0x2c ../data/Sprites/SpongeBob//libSpongeBob_Sprs.a(firestart0002_RL.o)
 .debug_pubnames
                0x00011953       0x2c ../data/Sprites/SpongeBob//libSpongeBob_Sprs.a(firestart0003_RL.o)
 .debug_pubnames
                0x0001197f       0x28 ../data/Sprites/SpongeBob//libSpongeBob_Sprs.a(getup0001_RL.o)
 .debug_pubnames
                0x000119a7       0x28 ../data/Sprites/SpongeBob//libSpongeBob_Sprs.a(getup0003_RL.o)
 .debug_pubnames
                0x000119cf       0x28 ../data/Sprites/SpongeBob//libSpongeBob_Sprs.a(getup0005_RL.o)
 .debug_pubnames
                0x000119f7       0x28 ../data/Sprites/SpongeBob//libSpongeBob_Sprs.a(getup0007_RL.o)
 .debug_pubnames
                0x00011a1f       0x2b ../data/Sprites/SpongeBob//libSpongeBob_Sprs.a(getuprun0001_RL.o)
 .debug_pubnames
                0x00011a4a       0x2b ../data/Sprites/SpongeBob//libSpongeBob_Sprs.a(getuprun0003_RL.o)
 .debug_pubnames
                0x00011a75       0x2b ../data/Sprites/SpongeBob//libSpongeBob_Sprs.a(getuprun0005_RL.o)
 .debug_pubnames
                0x00011aa0       0x2b ../data/Sprites/SpongeBob//libSpongeBob_Sprs.a(getuprun0007_RL.o)
 .debug_pubnames
                0x00011acb       0x2c ../data/Sprites/SpongeBob//libSpongeBob_Sprs.a(hitground0001_RL.o)
 .debug_pubnames
                0x00011af7       0x2c ../data/Sprites/SpongeBob//libSpongeBob_Sprs.a(hitground0003_RL.o)
 .debug_pubnames
                0x00011b23       0x2c ../data/Sprites/SpongeBob//libSpongeBob_Sprs.a(hitground0005_RL.o)
 .debug_pubnames
                0x00011b4f       0x2c ../data/Sprites/SpongeBob//libSpongeBob_Sprs.a(hitground0007_RL.o)
 .debug_pubnames
                0x00011b7b       0x28 ../data/Sprites/SpongeBob//libSpongeBob_Sprs.a(hover0001_RL.o)
 .debug_pubnames
                0x00011ba3       0x28 ../data/Sprites/SpongeBob//libSpongeBob_Sprs.a(hover0003_RL.o)
 .debug_pubnames
                0x00011bcb       0x28 ../data/Sprites/SpongeBob//libSpongeBob_Sprs.a(hover0005_RL.o)
 .debug_pubnames
                0x00011bf3       0x28 ../data/Sprites/SpongeBob//libSpongeBob_Sprs.a(hover0007_RL.o)
 .debug_pubnames
                0x00011c1b       0x2b ../data/Sprites/SpongeBob//libSpongeBob_Sprs.a(hoverend0000_RL.o)
 .debug_pubnames
                0x00011c46       0x2b ../data/Sprites/SpongeBob//libSpongeBob_Sprs.a(hoverend0001_RL.o)
 .debug_pubnames
                0x00011c71       0x2d ../data/Sprites/SpongeBob//libSpongeBob_Sprs.a(hoverstart0000_RL.o)
 .debug_pubnames
                0x00011c9e       0x2d ../data/Sprites/SpongeBob//libSpongeBob_Sprs.a(hoverstart0001_RL.o)
 .debug_pubnames
                0x00011ccb       0x31 ../data/Sprites/SpongeBob//libSpongeBob_Sprs.a(idlebouncehead0001_RL.o)
 .debug_pubnames
                0x00011cfc       0x31 ../data/Sprites/SpongeBob//libSpongeBob_Sprs.a(idlebouncehead0003_RL.o)
 .debug_pubnames
                0x00011d2d       0x31 ../data/Sprites/SpongeBob//libSpongeBob_Sprs.a(idlebouncehead0005_RL.o)
 .debug_pubnames
                0x00011d5e       0x31 ../data/Sprites/SpongeBob//libSpongeBob_Sprs.a(idlebouncehead0007_RL.o)
 .debug_pubnames
                0x00011d8f       0x31 ../data/Sprites/SpongeBob//libSpongeBob_Sprs.a(idlebouncehead0009_RL.o)
 .debug_pubnames
                0x00011dc0       0x31 ../data/Sprites/SpongeBob//libSpongeBob_Sprs.a(idlebouncehead0011_RL.o)
 .debug_pubnames
                0x00011df1       0x31 ../data/Sprites/SpongeBob//libSpongeBob_Sprs.a(idlebouncehead0013_RL.o)
 .debug_pubnames
                0x00011e22       0x31 ../data/Sprites/SpongeBob//libSpongeBob_Sprs.a(idlebouncehead0015_RL.o)
 .debug_pubnames
                0x00011e53       0x34 ../data/Sprites/SpongeBob//libSpongeBob_Sprs.a(idlebounceheadend0001_RL.o)
 .debug_pubnames
                0x00011e87       0x34 ../data/Sprites/SpongeBob//libSpongeBob_Sprs.a(idlebounceheadend0003_RL.o)
 .debug_pubnames
                0x00011ebb       0x34 ../data/Sprites/SpongeBob//libSpongeBob_Sprs.a(idlebounceheadend0005_RL.o)
 .debug_pubnames
                0x00011eef       0x34 ../data/Sprites/SpongeBob//libSpongeBob_Sprs.a(idlebounceheadend0007_RL.o)
 .debug_pubnames
                0x00011f23       0x36 ../data/Sprites/SpongeBob//libSpongeBob_Sprs.a(idlebounceheadstart0001_RL.o)
 .debug_pubnames
                0x00011f59       0x36 ../data/Sprites/SpongeBob//libSpongeBob_Sprs.a(idlebounceheadstart0003_RL.o)
 .debug_pubnames
                0x00011f8f       0x36 ../data/Sprites/SpongeBob//libSpongeBob_Sprs.a(idlebounceheadstart0005_RL.o)
 .debug_pubnames
                0x00011fc5       0x36 ../data/Sprites/SpongeBob//libSpongeBob_Sprs.a(idlebounceheadstart0007_RL.o)
 .debug_pubnames
                0x00011ffb       0x2e ../data/Sprites/SpongeBob//libSpongeBob_Sprs.a(idlebreathe0000_RL.o)
 .debug_pubnames
                0x00012029       0x2e ../data/Sprites/SpongeBob//libSpongeBob_Sprs.a(idlebreathe0001_RL.o)
 .debug_pubnames
                0x00012057       0x2e ../data/Sprites/SpongeBob//libSpongeBob_Sprs.a(idlebreathe0002_RL.o)
 .debug_pubnames
                0x00012085       0x2e ../data/Sprites/SpongeBob//libSpongeBob_Sprs.a(idlebreathe0003_RL.o)
 .debug_pubnames
                0x000120b3       0x2c ../data/Sprites/SpongeBob//libSpongeBob_Sprs.a(idlefaces0001_RL.o)
 .debug_pubnames
                0x000120df       0x2c ../data/Sprites/SpongeBob//libSpongeBob_Sprs.a(idlefaces0003_RL.o)
 .debug_pubnames
                0x0001210b       0x2c ../data/Sprites/SpongeBob//libSpongeBob_Sprs.a(idlefaces0005_RL.o)
 .debug_pubnames
                0x00012137       0x2c ../data/Sprites/SpongeBob//libSpongeBob_Sprs.a(idlefaces0007_RL.o)
 .debug_pubnames
                0x00012163       0x2f ../data/Sprites/SpongeBob//libSpongeBob_Sprs.a(idlefacesend0001_RL.o)
 .debug_pubnames
                0x00012192       0x2f ../data/Sprites/SpongeBob//libSpongeBob_Sprs.a(idlefacesend0003_RL.o)
 .debug_pubnames
                0x000121c1       0x2f ../data/Sprites/SpongeBob//libSpongeBob_Sprs.a(idlefacesend0005_RL.o)
 .debug_pubnames
                0x000121f0       0x2f ../data/Sprites/SpongeBob//libSpongeBob_Sprs.a(idlefacesend0007_RL.o)
 .debug_pubnames
                0x0001221f       0x31 ../data/Sprites/SpongeBob//libSpongeBob_Sprs.a(idlefacesstart0000_RL.o)
 .debug_pubnames
                0x00012250       0x31 ../data/Sprites/SpongeBob//libSpongeBob_Sprs.a(idlefacesstart0001_RL.o)
 .debug_pubnames
                0x00012281       0x2c ../data/Sprites/SpongeBob//libSpongeBob_Sprs.a(idlehoola0001_RL.o)
 .debug_pubnames
                0x000122ad       0x2c ../data/Sprites/SpongeBob//libSpongeBob_Sprs.a(idlehoola0003_RL.o)
 .debug_pubnames
                0x000122d9       0x2c ../data/Sprites/SpongeBob//libSpongeBob_Sprs.a(idlehoola0005_RL.o)
 .debug_pubnames
                0x00012305       0x2c ../data/Sprites/SpongeBob//libSpongeBob_Sprs.a(idlehoola0007_RL.o)
 .debug_pubnames
                0x00012331       0x2c ../data/Sprites/SpongeBob//libSpongeBob_Sprs.a(idlehoola0009_RL.o)
 .debug_pubnames
                0x0001235d       0x2c ../data/Sprites/SpongeBob//libSpongeBob_Sprs.a(idlehoola0011_RL.o)
 .debug_pubnames
                0x00012389       0x2c ../data/Sprites/SpongeBob//libSpongeBob_Sprs.a(idlehoola0013_RL.o)
 .debug_pubnames
                0x000123b5       0x2c ../data/Sprites/SpongeBob//libSpongeBob_Sprs.a(idlehoola0015_RL.o)
 .debug_pubnames
                0x000123e1       0x2d ../data/Sprites/SpongeBob//libSpongeBob_Sprs.a(idlekarate0001_RL.o)
 .debug_pubnames
                0x0001240e       0x2d ../data/Sprites/SpongeBob//libSpongeBob_Sprs.a(idlekarate0003_RL.o)
 .debug_pubnames
                0x0001243b       0x2d ../data/Sprites/SpongeBob//libSpongeBob_Sprs.a(idlekarate0005_RL.o)
 .debug_pubnames
                0x00012468       0x2d ../data/Sprites/SpongeBob//libSpongeBob_Sprs.a(idlekarate0007_RL.o)
 .debug_pubnames
                0x00012495       0x2d ../data/Sprites/SpongeBob//libSpongeBob_Sprs.a(idlekarate0009_RL.o)
 .debug_pubnames
                0x000124c2       0x2d ../data/Sprites/SpongeBob//libSpongeBob_Sprs.a(idlekarate0011_RL.o)
 .debug_pubnames
                0x000124ef       0x2d ../data/Sprites/SpongeBob//libSpongeBob_Sprs.a(idlekarate0013_RL.o)
 .debug_pubnames
                0x0001251c       0x2d ../data/Sprites/SpongeBob//libSpongeBob_Sprs.a(idlekarate0015_RL.o)
 .debug_pubnames
                0x00012549       0x2c ../data/Sprites/SpongeBob//libSpongeBob_Sprs.a(idlesleep0001_RL.o)
 .debug_pubnames
                0x00012575       0x2c ../data/Sprites/SpongeBob//libSpongeBob_Sprs.a(idlesleep0003_RL.o)
 .debug_pubnames
                0x000125a1       0x2c ../data/Sprites/SpongeBob//libSpongeBob_Sprs.a(idlesleep0005_RL.o)
 .debug_pubnames
                0x000125cd       0x2c ../data/Sprites/SpongeBob//libSpongeBob_Sprs.a(idlesleep0007_RL.o)
 .debug_pubnames
                0x000125f9       0x2f ../data/Sprites/SpongeBob//libSpongeBob_Sprs.a(idlesleepend0001_RL.o)
 .debug_pubnames
                0x00012628       0x2f ../data/Sprites/SpongeBob//libSpongeBob_Sprs.a(idlesleepend0003_RL.o)
 .debug_pubnames
                0x00012657       0x31 ../data/Sprites/SpongeBob//libSpongeBob_Sprs.a(idlesleepstart0001_RL.o)
 .debug_pubnames
                0x00012688       0x31 ../data/Sprites/SpongeBob//libSpongeBob_Sprs.a(idlesleepstart0003_RL.o)
 .debug_pubnames
                0x000126b9       0x31 ../data/Sprites/SpongeBob//libSpongeBob_Sprs.a(idlesplitpants0001_RL.o)
 .debug_pubnames
                0x000126ea       0x31 ../data/Sprites/SpongeBob//libSpongeBob_Sprs.a(idlesplitpants0003_RL.o)
 .debug_pubnames
                0x0001271b       0x31 ../data/Sprites/SpongeBob//libSpongeBob_Sprs.a(idlesplitpants0005_RL.o)
 .debug_pubnames
                0x0001274c       0x31 ../data/Sprites/SpongeBob//libSpongeBob_Sprs.a(idlesplitpants0007_RL.o)
 .debug_pubnames
                0x0001277d       0x31 ../data/Sprites/SpongeBob//libSpongeBob_Sprs.a(idlesplitpants0009_RL.o)
 .debug_pubnames
                0x000127ae       0x31 ../data/Sprites/SpongeBob//libSpongeBob_Sprs.a(idlesplitpants0011_RL.o)
 .debug_pubnames
                0x000127df       0x31 ../data/Sprites/SpongeBob//libSpongeBob_Sprs.a(idlesplitpants0013_RL.o)
 .debug_pubnames
                0x00012810       0x31 ../data/Sprites/SpongeBob//libSpongeBob_Sprs.a(idlesplitpants0015_RL.o)
 .debug_pubnames
                0x00012841       0x31 ../data/Sprites/SpongeBob//libSpongeBob_Sprs.a(idlesplitpants0017_RL.o)
 .debug_pubnames
                0x00012872       0x31 ../data/Sprites/SpongeBob//libSpongeBob_Sprs.a(idlesplitpants0019_RL.o)
 .debug_pubnames
                0x000128a3       0x31 ../data/Sprites/SpongeBob//libSpongeBob_Sprs.a(idlesplitpants0021_RL.o)
 .debug_pubnames
                0x000128d4       0x31 ../data/Sprites/SpongeBob//libSpongeBob_Sprs.a(idlesplitpants0023_RL.o)
 .debug_pubnames
                0x00012905       0x2d ../data/Sprites/SpongeBob//libSpongeBob_Sprs.a(idleweapon0001_RL.o)
 .debug_pubnames
                0x00012932       0x2d ../data/Sprites/SpongeBob//libSpongeBob_Sprs.a(idleweapon0003_RL.o)
 .debug_pubnames
                0x0001295f       0x2d ../data/Sprites/SpongeBob//libSpongeBob_Sprs.a(idleweapon0005_RL.o)
 .debug_pubnames
                0x0001298c       0x2d ../data/Sprites/SpongeBob//libSpongeBob_Sprs.a(idleweapon0007_RL.o)
 .debug_pubnames
                0x000129b9       0x2d ../data/Sprites/SpongeBob//libSpongeBob_Sprs.a(idleweapon0009_RL.o)
 .debug_pubnames
                0x000129e6       0x2d ../data/Sprites/SpongeBob//libSpongeBob_Sprs.a(idleweapon0011_RL.o)
 .debug_pubnames
                0x00012a13       0x2d ../data/Sprites/SpongeBob//libSpongeBob_Sprs.a(idleweapon0013_RL.o)
 .debug_pubnames
                0x00012a40       0x2d ../data/Sprites/SpongeBob//libSpongeBob_Sprs.a(idleweapon0015_RL.o)
 .debug_pubnames
                0x00012a6d       0x31 ../data/Sprites/SpongeBob//libSpongeBob_Sprs.a(idlewigglearms0001_RL.o)
 .debug_pubnames
                0x00012a9e       0x31 ../data/Sprites/SpongeBob//libSpongeBob_Sprs.a(idlewigglearms0003_RL.o)
 .debug_pubnames
                0x00012acf       0x31 ../data/Sprites/SpongeBob//libSpongeBob_Sprs.a(idlewigglearms0005_RL.o)
 .debug_pubnames
                0x00012b00       0x31 ../data/Sprites/SpongeBob//libSpongeBob_Sprs.a(idlewigglearms0007_RL.o)
 .debug_pubnames
                0x00012b31       0x31 ../data/Sprites/SpongeBob//libSpongeBob_Sprs.a(idlewigglearms0009_RL.o)
 .debug_pubnames
                0x00012b62       0x31 ../data/Sprites/SpongeBob//libSpongeBob_Sprs.a(idlewigglearms0011_RL.o)
 .debug_pubnames
                0x00012b93       0x31 ../data/Sprites/SpongeBob//libSpongeBob_Sprs.a(idlewigglearms0013_RL.o)
 .debug_pubnames
                0x00012bc4       0x31 ../data/Sprites/SpongeBob//libSpongeBob_Sprs.a(idlewigglearms0015_RL.o)
 .debug_pubnames
                0x00012bf5       0x2b ../data/Sprites/SpongeBob//libSpongeBob_Sprs.a(idlewind0001_RL.o)
 .debug_pubnames
                0x00012c20       0x2b ../data/Sprites/SpongeBob//libSpongeBob_Sprs.a(idlewind0003_RL.o)
 .debug_pubnames
                0x00012c4b       0x2b ../data/Sprites/SpongeBob//libSpongeBob_Sprs.a(idlewind0005_RL.o)
 .debug_pubnames
                0x00012c76       0x2b ../data/Sprites/SpongeBob//libSpongeBob_Sprs.a(idlewind0007_RL.o)
 .debug_pubnames
                0x00012ca1       0x2b ../data/Sprites/SpongeBob//libSpongeBob_Sprs.a(idlewind0009_RL.o)
 .debug_pubnames
                0x00012ccc       0x2b ../data/Sprites/SpongeBob//libSpongeBob_Sprs.a(idlewind0011_RL.o)
 .debug_pubnames
                0x00012cf7       0x2b ../data/Sprites/SpongeBob//libSpongeBob_Sprs.a(idlewind0013_RL.o)
 .debug_pubnames
                0x00012d22       0x2b ../data/Sprites/SpongeBob//libSpongeBob_Sprs.a(idlewind0015_RL.o)
 .debug_pubnames
                0x00012d4d       0x2a ../data/Sprites/SpongeBob//libSpongeBob_Sprs.a(jumpend0001_RL.o)
 .debug_pubnames
                0x00012d77       0x2a ../data/Sprites/SpongeBob//libSpongeBob_Sprs.a(jumpend0003_RL.o)
 .debug_pubnames
                0x00012da1       0x29 ../data/Sprites/SpongeBob//libSpongeBob_Sprs.a(karate0001_RL.o)
 .debug_pubnames
                0x00012dca       0x29 ../data/Sprites/SpongeBob//libSpongeBob_Sprs.a(karate0003_RL.o)
 .debug_pubnames
                0x00012df3       0x29 ../data/Sprites/SpongeBob//libSpongeBob_Sprs.a(karate0005_RL.o)
 .debug_pubnames
                0x00012e1c       0x29 ../data/Sprites/SpongeBob//libSpongeBob_Sprs.a(karate0007_RL.o)
 .debug_pubnames
                0x00012e45       0x29 ../data/Sprites/SpongeBob//libSpongeBob_Sprs.a(karate0009_RL.o)
 .debug_pubnames
                0x00012e6e       0x29 ../data/Sprites/SpongeBob//libSpongeBob_Sprs.a(karate0011_RL.o)
 .debug_pubnames
                0x00012e97       0x29 ../data/Sprites/SpongeBob//libSpongeBob_Sprs.a(karate0013_RL.o)
 .debug_pubnames
                0x00012ec0       0x29 ../data/Sprites/SpongeBob//libSpongeBob_Sprs.a(karate0015_RL.o)
 .debug_pubnames
                0x00012ee9       0x2d ../data/Sprites/SpongeBob//libSpongeBob_Sprs.a(netfirelob0001_RL.o)
 .debug_pubnames
                0x00012f16       0x2d ../data/Sprites/SpongeBob//libSpongeBob_Sprs.a(netfirelob0003_RL.o)
 .debug_pubnames
                0x00012f43       0x2d ../data/Sprites/SpongeBob//libSpongeBob_Sprs.a(netfirelob0005_RL.o)
 .debug_pubnames
                0x00012f70       0x2d ../data/Sprites/SpongeBob//libSpongeBob_Sprs.a(netfirelob0007_RL.o)
 .debug_pubnames
                0x00012f9d       0x2d ../data/Sprites/SpongeBob//libSpongeBob_Sprs.a(netfirelob0009_RL.o)
 .debug_pubnames
                0x00012fca       0x2d ../data/Sprites/SpongeBob//libSpongeBob_Sprs.a(netfirelob0011_RL.o)
 .debug_pubnames
                0x00012ff7       0x2d ../data/Sprites/SpongeBob//libSpongeBob_Sprs.a(netfirelob0013_RL.o)
 .debug_pubnames
                0x00013024       0x2d ../data/Sprites/SpongeBob//libSpongeBob_Sprs.a(netfirelob0015_RL.o)
 .debug_pubnames
                0x00013051       0x2b ../data/Sprites/SpongeBob//libSpongeBob_Sprs.a(netswipe0001_RL.o)
 .debug_pubnames
                0x0001307c       0x2b ../data/Sprites/SpongeBob//libSpongeBob_Sprs.a(netswipe0003_RL.o)
 .debug_pubnames
                0x000130a7       0x2b ../data/Sprites/SpongeBob//libSpongeBob_Sprs.a(netswipe0005_RL.o)
 .debug_pubnames
                0x000130d2       0x2b ../data/Sprites/SpongeBob//libSpongeBob_Sprs.a(netswipe0007_RL.o)
 .debug_pubnames
                0x000130fd       0x2b ../data/Sprites/SpongeBob//libSpongeBob_Sprs.a(netswipe0009_RL.o)
 .debug_pubnames
                0x00013128       0x2b ../data/Sprites/SpongeBob//libSpongeBob_Sprs.a(netswipe0011_RL.o)
 .debug_pubnames
                0x00013153       0x2b ../data/Sprites/SpongeBob//libSpongeBob_Sprs.a(netswipe0013_RL.o)
 .debug_pubnames
                0x0001317e       0x2b ../data/Sprites/SpongeBob//libSpongeBob_Sprs.a(netswipe0015_RL.o)
 .debug_pubnames
                0x000131a9       0x26 ../data/Sprites/SpongeBob//libSpongeBob_Sprs.a(run0000_RL.o)
 .debug_pubnames
                0x000131cf       0x26 ../data/Sprites/SpongeBob//libSpongeBob_Sprs.a(run0001_RL.o)
 .debug_pubnames
                0x000131f5       0x26 ../data/Sprites/SpongeBob//libSpongeBob_Sprs.a(run0002_RL.o)
 .debug_pubnames
                0x0001321b       0x26 ../data/Sprites/SpongeBob//libSpongeBob_Sprs.a(run0003_RL.o)
 .debug_pubnames
                0x00013241       0x26 ../data/Sprites/SpongeBob//libSpongeBob_Sprs.a(run0004_RL.o)
 .debug_pubnames
                0x00013267       0x26 ../data/Sprites/SpongeBob//libSpongeBob_Sprs.a(run0005_RL.o)
 .debug_pubnames
                0x0001328d       0x26 ../data/Sprites/SpongeBob//libSpongeBob_Sprs.a(run0006_RL.o)
 .debug_pubnames
                0x000132b3       0x26 ../data/Sprites/SpongeBob//libSpongeBob_Sprs.a(run0007_RL.o)
 .debug_pubnames
                0x000132d9       0x26 ../data/Sprites/SpongeBob//libSpongeBob_Sprs.a(run0008_RL.o)
 .debug_pubnames
                0x000132ff       0x26 ../data/Sprites/SpongeBob//libSpongeBob_Sprs.a(run0009_RL.o)
 .debug_pubnames
                0x00013325       0x26 ../data/Sprites/SpongeBob//libSpongeBob_Sprs.a(run0010_RL.o)
 .debug_pubnames
                0x0001334b       0x26 ../data/Sprites/SpongeBob//libSpongeBob_Sprs.a(run0011_RL.o)
 .debug_pubnames
                0x00013371       0x26 ../data/Sprites/SpongeBob//libSpongeBob_Sprs.a(run0012_RL.o)
 .debug_pubnames
                0x00013397       0x26 ../data/Sprites/SpongeBob//libSpongeBob_Sprs.a(run0013_RL.o)
 .debug_pubnames
                0x000133bd       0x26 ../data/Sprites/SpongeBob//libSpongeBob_Sprs.a(run0014_RL.o)
 .debug_pubnames
                0x000133e3       0x26 ../data/Sprites/SpongeBob//libSpongeBob_Sprs.a(run0015_RL.o)
 .debug_pubnames
                0x00013409       0x29 ../data/Sprites/SpongeBob//libSpongeBob_Sprs.a(soakup0001_RL.o)
 .debug_pubnames
                0x00013432       0x29 ../data/Sprites/SpongeBob//libSpongeBob_Sprs.a(soakup0003_RL.o)
 .debug_pubnames
                0x0001345b       0x29 ../data/Sprites/SpongeBob//libSpongeBob_Sprs.a(soakup0005_RL.o)
 .debug_pubnames
                0x00013484       0x29 ../data/Sprites/SpongeBob//libSpongeBob_Sprs.a(soakup0007_RL.o)
 .debug_pubnames
                0x000134ad       0x2e ../data/Sprites/SpongeBob//libSpongeBob_Sprs.a(teeterfront0001_RL.o)
 .debug_pubnames
                0x000134db       0x2e ../data/Sprites/SpongeBob//libSpongeBob_Sprs.a(teeterfront0003_RL.o)
 .debug_pubnames
                0x00013509       0x2e ../data/Sprites/SpongeBob//libSpongeBob_Sprs.a(teeterfront0005_RL.o)
 .debug_pubnames
                0x00013537       0x2e ../data/Sprites/SpongeBob//libSpongeBob_Sprs.a(teeterfront0007_RL.o)
 .debug_pubnames
                0x00013565       0x2e ../data/Sprites/SpongeBob//libSpongeBob_Sprs.a(teeterfront0009_RL.o)
 .debug_pubnames
                0x00013593       0x2e ../data/Sprites/SpongeBob//libSpongeBob_Sprs.a(teeterfront0011_RL.o)
 .debug_pubnames
                0x000135c1       0x2e ../data/Sprites/SpongeBob//libSpongeBob_Sprs.a(teeterfront0013_RL.o)
 .debug_pubnames
                0x000135ef       0x2e ../data/Sprites/SpongeBob//libSpongeBob_Sprs.a(teeterfront0015_RL.o)
 .debug_pubnames
                0x0001361d       0x2e ../data/Sprites/SpongeBob//libSpongeBob_Sprs.a(walkforward0001_RL.o)
 .debug_pubnames
                0x0001364b       0x2e ../data/Sprites/SpongeBob//libSpongeBob_Sprs.a(walkforward0003_RL.o)
 .debug_pubnames
                0x00013679       0x2e ../data/Sprites/SpongeBob//libSpongeBob_Sprs.a(walkforward0005_RL.o)
 .debug_pubnames
                0x000136a7       0x2e ../data/Sprites/SpongeBob//libSpongeBob_Sprs.a(walkforward0007_RL.o)
 .debug_pubnames
                0x000136d5       0x2e ../data/Sprites/SpongeBob//libSpongeBob_Sprs.a(walkforward0009_RL.o)
 .debug_pubnames
                0x00013703       0x2e ../data/Sprites/SpongeBob//libSpongeBob_Sprs.a(walkforward0011_RL.o)
 .debug_pubnames
                0x00013731       0x2e ../data/Sprites/SpongeBob//libSpongeBob_Sprs.a(walkforward0013_RL.o)
 .debug_pubnames
                0x0001375f       0x2e ../data/Sprites/SpongeBob//libSpongeBob_Sprs.a(walkforward0015_RL.o)
 .debug_pubnames
                0x0001378d       0x27 ../data/Sprites/NPC//libNPC_Sprs.a(patrick0001.o)
 .debug_pubnames
                0x000137b4       0x28 ../data/Sprites/Platforms//libPlatforms_Sprs.a(platform0001.o)
 .debug_pubnames
                0x000137dc       0x2c ../data/Sprites/Monsters//libMonsters_Sprs.a(clamsidesnap0001.o)
 .debug_pubnames
                0x00013808       0x2c ../data/Sprites/Monsters//libMonsters_Sprs.a(clamsidesnap0003.o)
 .debug_pubnames
                0x00013834       0x2c ../data/Sprites/Monsters//libMonsters_Sprs.a(clamsidesnap0005.o)
 .debug_pubnames
                0x00013860       0x2c ../data/Sprites/Monsters//libMonsters_Sprs.a(clamsidesnap0007.o)
 .debug_pubnames
                0x0001388c       0x2a ../data/Sprites/Monsters//libMonsters_Sprs.a(clamsnapup0001.o)
 .debug_pubnames
                0x000138b6       0x2a ../data/Sprites/Monsters//libMonsters_Sprs.a(clamsnapup0003.o)
 .debug_pubnames
                0x000138e0       0x2a ../data/Sprites/Monsters//libMonsters_Sprs.a(clamsnapup0005.o)
 .debug_pubnames
                0x0001390a       0x1d C:\PROGRA~1\Cygnus\thumbelf-000512\H-i686-cygwin32\bin/../lib/gcc-lib/thumb-elf/2.9-arm-000512/../../../../thumb-elf/lib/libg.a(strlen.o)

.debug_info     0x00000000   0x465127
 *(.debug_info)
 .debug_info    0x00000000     0x4616 Main.o
 .debug_info    0x00004616     0x52a6 Game.o
 .debug_info    0x000098bc     0x4e49 Titles.o
 .debug_info    0x0000e705     0x3f41 Random.o
 .debug_info    0x00012646     0x4436 StartUp.o
 .debug_info    0x00016a7c     0xe914 Scroll_Engine.o
 .debug_info    0x00025390     0x496e SprEng_Control.o
 .debug_info    0x00029cfe     0x8743 SprEng_Animate.o
 .debug_info    0x00032441     0x4b3b SprEng_Display.o
 .debug_info    0x00036f7c     0x4b24 SprEng_Common.o
 .debug_info    0x0003baa0     0x4b86 SprEng_SpongeBob.o
 .debug_info    0x00040626     0x4b4c SprEng_NPC.o
 .debug_info    0x00045172     0x4b52 SprEng_Platforms.o
 .debug_info    0x00049cc4     0x4b8d SprEng_Monsters.o
 .debug_info    0x0004e851     0x3f0c Sinecos.o
 .debug_info    0x0005275d     0x4ce3 Contours.o
 .debug_info    0x00057440     0x499c Text_Sys.o
 .debug_info    0x0005bddc     0x4b66 Collision.o
 .debug_info    0x00060942     0x4c11 Hub.o
 .debug_info    0x00065553     0x4c02 Fade.o
 .debug_info    0x0006a155     0x27a3 ../data/Titles//libTitlesGFX.a(Start_Copy.o)
 .debug_info    0x0006c8f8     0x279f ../data/Titles//libTitlesGFX.a(Start_THQ.o)
 .debug_info    0x0006f097     0x27a3 ../data/Titles//libTitlesGFX.a(Start_Nick.o)
 .debug_info    0x0007183a     0x27ab ../data/Titles//libTitlesGFX.a(Start_Climax.o)
 .debug_info    0x00073fe5     0x2739 ../data/Titles//libTitlesGFX.a(libFontGame.o)
 .debug_info    0x0007671e     0x2739 ../data/Titles//libTitlesGFX.a(libFontMenu.o)
 .debug_info    0x00078e57     0x279b ../data/Titles//libTitlesGFX.a(menuback.o)
 .debug_info    0x0007b5f2     0x2793 ../data/Titles//libTitlesGFX.a(HubMap.o)
 .debug_info    0x0007dd85     0x2793 ../data/Titles//libTitlesGFX.a(menul2.o)
 .debug_info    0x00080518     0x279f ../data/Titles//libTitlesGFX.a(menuback2.o)
 .debug_info    0x00082cb7     0x279f ../data/Titles//libTitlesGFX.a(menuback3.o)
 .debug_info    0x00085456     0x279f ../data/Titles//libTitlesGFX.a(menuback4.o)
 .debug_info    0x00087bf5     0x279f ../data/Titles//libTitlesGFX.a(menuback5.o)
 .debug_info    0x0008a394     0x279f ../data/Titles//libTitlesGFX.a(menuback6.o)
 .debug_info    0x0008cb33     0x272d ../data/Titles//libTitlesGFX.a(icons.o)
 .debug_info    0x0008f260     0x2957 ../data/Maps//libMaps.a(CHAPTER01_LEVEL0101.o)
 .debug_info    0x00091bb7     0x2957 ../data/Maps//libMaps.a(CHAPTER01_LEVEL0102.o)
 .debug_info    0x0009450e     0x2957 ../data/Maps//libMaps.a(CHAPTER01_LEVEL0103.o)
 .debug_info    0x00096e65     0x2957 ../data/Maps//libMaps.a(CHAPTER01_LEVEL0104.o)
 .debug_info    0x000997bc     0x2957 ../data/Maps//libMaps.a(CHAPTER01_LEVEL0105.o)
 .debug_info    0x0009c113     0x2957 ../data/Maps//libMaps.a(CHAPTER01_LEVEL0201.o)
 .debug_info    0x0009ea6a     0x2957 ../data/Maps//libMaps.a(CHAPTER01_LEVEL0204.o)
 .debug_info    0x000a13c1     0x2957 ../data/Maps//libMaps.a(CHAPTER01_LEVEL0301.o)
 .debug_info    0x000a3d18     0x2957 ../data/Maps//libMaps.a(CHAPTER01_LEVEL0302.o)
 .debug_info    0x000a666f     0x2957 ../data/Maps//libMaps.a(CHAPTER01_LEVEL0303.o)
 .debug_info    0x000a8fc6     0x2957 ../data/Maps//libMaps.a(CHAPTER01_LEVEL0401.o)
 .debug_info    0x000ab91d     0x2957 ../data/Maps//libMaps.a(CHAPTER02_LEVEL0101.o)
 .debug_info    0x000ae274     0x2957 ../data/Maps//libMaps.a(CHAPTER02_LEVEL0102.o)
 .debug_info    0x000b0bcb     0x2957 ../data/Maps//libMaps.a(CHAPTER02_LEVEL0103.o)
 .debug_info    0x000b3522     0x2957 ../data/Maps//libMaps.a(CHAPTER02_LEVEL0104.o)
 .debug_info    0x000b5e79     0x295a ../data/Maps//libMaps.a(CHAPTER02_LEVEL0105.o)
 .debug_info    0x000b87d3     0x2957 ../data/Maps//libMaps.a(CHAPTER02_LEVEL0106.o)
 .debug_info    0x000bb12a     0x2957 ../data/Maps//libMaps.a(CHAPTER02_LEVEL0107.o)
 .debug_info    0x000bda81     0x2957 ../data/Maps//libMaps.a(CHAPTER02_LEVEL0108.o)
 .debug_info    0x000c03d8     0x2957 ../data/Maps//libMaps.a(CHAPTER02_LEVEL0201.o)
 .debug_info    0x000c2d2f     0x295a ../data/Maps//libMaps.a(CHAPTER02_LEVEL0202.o)
 .debug_info    0x000c5689     0x2957 ../data/Maps//libMaps.a(CHAPTER02_LEVEL0203.o)
 .debug_info    0x000c7fe0     0x2957 ../data/Maps//libMaps.a(CHAPTER02_LEVEL0204.o)
 .debug_info    0x000ca937     0x2957 ../data/Maps//libMaps.a(CHAPTER02_LEVEL0301.o)
 .debug_info    0x000cd28e     0x2957 ../data/Maps//libMaps.a(CHAPTER02_LEVEL0302.o)
 .debug_info    0x000cfbe5     0x2957 ../data/Maps//libMaps.a(CHAPTER02_LEVEL0303.o)
 .debug_info    0x000d253c     0x2957 ../data/Maps//libMaps.a(CHAPTER02_LEVEL0304.o)
 .debug_info    0x000d4e93     0x2957 ../data/Maps//libMaps.a(CHAPTER02_LEVEL0305.o)
 .debug_info    0x000d77ea     0x2957 ../data/Maps//libMaps.a(CHAPTER02_LEVEL0306.o)
 .debug_info    0x000da141     0x2957 ../data/Maps//libMaps.a(CHAPTER02_LEVEL0401.o)
 .debug_info    0x000dca98     0x2957 ../data/Maps//libMaps.a(CHAPTER02_LEVEL0402.o)
 .debug_info    0x000df3ef     0x2957 ../data/Maps//libMaps.a(CHAPTER02_LEVEL0403.o)
 .debug_info    0x000e1d46     0x2957 ../data/Maps//libMaps.a(CHAPTER02_LEVEL0404.o)
 .debug_info    0x000e469d     0x2957 ../data/Maps//libMaps.a(CHAPTER02_LEVEL0405.o)
 .debug_info    0x000e6ff4     0x2957 ../data/Maps//libMaps.a(CHAPTER03_LEVEL0101.o)
 .debug_info    0x000e994b     0x294a ../data/Maps//libMaps.a(CHAPTER03_LEVEL0102.o)
 .debug_info    0x000ec295     0x2957 ../data/Maps//libMaps.a(CHAPTER03_LEVEL0103.o)
 .debug_info    0x000eebec     0x2957 ../data/Maps//libMaps.a(CHAPTER03_LEVEL0104.o)
 .debug_info    0x000f1543     0x2957 ../data/Maps//libMaps.a(CHAPTER03_LEVEL0105.o)
 .debug_info    0x000f3e9a     0x2957 ../data/Maps//libMaps.a(CHAPTER03_LEVEL0106.o)
 .debug_info    0x000f67f1     0x2957 ../data/Maps//libMaps.a(CHAPTER03_LEVEL0107.o)
 .debug_info    0x000f9148     0x2957 ../data/Maps//libMaps.a(CHAPTER03_LEVEL0201.o)
 .debug_info    0x000fba9f     0x2957 ../data/Maps//libMaps.a(CHAPTER03_LEVEL0202.o)
 .debug_info    0x000fe3f6     0x2957 ../data/Maps//libMaps.a(CHAPTER03_LEVEL0203.o)
 .debug_info    0x00100d4d     0x2957 ../data/Maps//libMaps.a(CHAPTER03_LEVEL0204.o)
 .debug_info    0x001036a4     0x2957 ../data/Maps//libMaps.a(CHAPTER03_LEVEL0205.o)
 .debug_info    0x00105ffb     0x2957 ../data/Maps//libMaps.a(CHAPTER03_LEVEL0206.o)
 .debug_info    0x00108952     0x2957 ../data/Maps//libMaps.a(CHAPTER03_LEVEL0207.o)
 .debug_info    0x0010b2a9     0x2957 ../data/Maps//libMaps.a(CHAPTER03_LEVEL0301.o)
 .debug_info    0x0010dc00     0x2957 ../data/Maps//libMaps.a(CHAPTER03_LEVEL0302.o)
 .debug_info    0x00110557     0x2957 ../data/Maps//libMaps.a(CHAPTER03_LEVEL0303.o)
 .debug_info    0x00112eae     0x2957 ../data/Maps//libMaps.a(CHAPTER03_LEVEL0304.o)
 .debug_info    0x00115805     0x2957 ../data/Maps//libMaps.a(CHAPTER03_LEVEL0305.o)
 .debug_info    0x0011815c     0x2957 ../data/Maps//libMaps.a(CHAPTER03_LEVEL0306.o)
 .debug_info    0x0011aab3     0x2957 ../data/Maps//libMaps.a(CHAPTER03_LEVEL0401.o)
 .debug_info    0x0011d40a     0x2957 ../data/Maps//libMaps.a(CHAPTER03_LEVEL0402.o)
 .debug_info    0x0011fd61     0x2957 ../data/Maps//libMaps.a(CHAPTER03_LEVEL0403.o)
 .debug_info    0x001226b8     0x2957 ../data/Maps//libMaps.a(CHAPTER03_LEVEL0404.o)
 .debug_info    0x0012500f     0x2957 ../data/Maps//libMaps.a(CHAPTER03_LEVEL0405.o)
 .debug_info    0x00127966     0x2957 ../data/Maps//libMaps.a(CHAPTER03_LEVEL0406.o)
 .debug_info    0x0012a2bd     0x2957 ../data/Maps//libMaps.a(CHAPTER04_LEVEL0101.o)
 .debug_info    0x0012cc14     0x295a ../data/Maps//libMaps.a(CHAPTER04_LEVEL0102.o)
 .debug_info    0x0012f56e     0x2957 ../data/Maps//libMaps.a(CHAPTER04_LEVEL0103.o)
 .debug_info    0x00131ec5     0x295a ../data/Maps//libMaps.a(CHAPTER04_LEVEL0104.o)
 .debug_info    0x0013481f     0x2957 ../data/Maps//libMaps.a(CHAPTER04_LEVEL0201.o)
 .debug_info    0x00137176     0x2957 ../data/Maps//libMaps.a(CHAPTER04_LEVEL0202.o)
 .debug_info    0x00139acd     0x2957 ../data/Maps//libMaps.a(CHAPTER04_LEVEL0203.o)
 .debug_info    0x0013c424     0x2957 ../data/Maps//libMaps.a(CHAPTER04_LEVEL0204.o)
 .debug_info    0x0013ed7b     0x2957 ../data/Maps//libMaps.a(CHAPTER04_LEVEL0205.o)
 .debug_info    0x001416d2     0x2957 ../data/Maps//libMaps.a(CHAPTER04_LEVEL0301.o)
 .debug_info    0x00144029     0x2957 ../data/Maps//libMaps.a(CHAPTER04_LEVEL0302.o)
 .debug_info    0x00146980     0x2957 ../data/Maps//libMaps.a(CHAPTER04_LEVEL0303.o)
 .debug_info    0x001492d7     0x2957 ../data/Maps//libMaps.a(CHAPTER04_LEVEL0304.o)
 .debug_info    0x0014bc2e     0x2957 ../data/Maps//libMaps.a(CHAPTER04_LEVEL0305.o)
 .debug_info    0x0014e585     0x2957 ../data/Maps//libMaps.a(CHAPTER04_LEVEL0306.o)
 .debug_info    0x00150edc     0x2957 ../data/Maps//libMaps.a(CHAPTER04_LEVEL0401.o)
 .debug_info    0x00153833     0x2957 ../data/Maps//libMaps.a(CHAPTER04_LEVEL0402.o)
 .debug_info    0x0015618a     0x2957 ../data/Maps//libMaps.a(CHAPTER04_LEVEL0403.o)
 .debug_info    0x00158ae1     0x2957 ../data/Maps//libMaps.a(CHAPTER04_LEVEL0404.o)
 .debug_info    0x0015b438     0x2957 ../data/Maps//libMaps.a(CHAPTER04_LEVEL0405.o)
 .debug_info    0x0015dd8f     0x2957 ../data/Maps//libMaps.a(CHAPTER04_LEVEL0406.o)
 .debug_info    0x001606e6     0x2957 ../data/Maps//libMaps.a(CHAPTER04_LEVEL0407.o)
 .debug_info    0x0016303d     0x2957 ../data/Maps//libMaps.a(CHAPTER05_LEVEL0101.o)
 .debug_info    0x00165994     0x2957 ../data/Maps//libMaps.a(CHAPTER05_LEVEL0102.o)
 .debug_info    0x001682eb     0x2957 ../data/Maps//libMaps.a(CHAPTER05_LEVEL0103.o)
 .debug_info    0x0016ac42     0x2957 ../data/Maps//libMaps.a(CHAPTER05_LEVEL0201.o)
 .debug_info    0x0016d599     0x2957 ../data/Maps//libMaps.a(CHAPTER05_LEVEL0202.o)
 .debug_info    0x0016fef0     0x2957 ../data/Maps//libMaps.a(CHAPTER05_LEVEL0203.o)
 .debug_info    0x00172847     0x2957 ../data/Maps//libMaps.a(CHAPTER05_LEVEL0204.o)
 .debug_info    0x0017519e     0x2957 ../data/Maps//libMaps.a(CHAPTER05_LEVEL0301.o)
 .debug_info    0x00177af5     0x2957 ../data/Maps//libMaps.a(CHAPTER05_LEVEL0302.o)
 .debug_info    0x0017a44c     0x2957 ../data/Maps//libMaps.a(CHAPTER05_LEVEL0303.o)
 .debug_info    0x0017cda3     0x2957 ../data/Maps//libMaps.a(CHAPTER05_LEVEL0304.o)
 .debug_info    0x0017f6fa     0x2957 ../data/Maps//libMaps.a(CHAPTER05_LEVEL0305.o)
 .debug_info    0x00182051     0x2957 ../data/Maps//libMaps.a(CHAPTER05_LEVEL0401.o)
 .debug_info    0x001849a8     0x2957 ../data/Maps//libMaps.a(CHAPTER05_LEVEL0402.o)
 .debug_info    0x001872ff     0x2957 ../data/Maps//libMaps.a(CHAPTER05_LEVEL0403.o)
 .debug_info    0x00189c56     0x2957 ../data/Maps//libMaps.a(CHAPTER05_LEVEL0404.o)
 .debug_info    0x0018c5ad     0x2957 ../data/Maps//libMaps.a(CHAPTER05_LEVEL0405.o)
 .debug_info    0x0018ef04     0x2957 ../data/Maps//libMaps.a(CHAPTER05_LEVEL0406.o)
 .debug_info    0x0019185b     0x2957 ../data/Maps//libMaps.a(CHAPTER05_LEVEL0407.o)
 .debug_info    0x001941b2     0x2957 ../data/Maps//libMaps.a(CHAPTER05_LEVEL0408.o)
 .debug_info    0x00196b09     0x2957 ../data/Maps//libMaps.a(CHAPTER06_LEVEL0101.o)
 .debug_info    0x00199460     0x2957 ../data/Maps//libMaps.a(CHAPTER06_LEVEL0102.o)
 .debug_info    0x0019bdb7     0x2957 ../data/Maps//libMaps.a(CHAPTER06_LEVEL0301.o)
 .debug_info    0x0019e70e     0x2957 ../data/Maps//libMaps.a(CHAPTER06_LEVEL0302.o)
 .debug_info    0x001a1065     0x2957 ../data/Maps//libMaps.a(CHAPTER06_LEVEL0501.o)
 .debug_info    0x001a39bc     0x2957 ../data/Maps//libMaps.a(CHAPTER06_LEVEL0502.o)
 .debug_info    0x001a6313     0x2957 ../data/Maps//libMaps.a(CHAPTER06_LEVEL0503.o)
 .debug_info    0x001a8c6a     0x2957 ../data/Maps//libMaps.a(CHAPTER06_LEVEL0504.o)
 .debug_info    0x001ab5c1     0x2957 ../data/Maps//libMaps.a(CHAPTER06_LEVEL0505.o)
 .debug_info    0x001adf18     0x277f ../data/Maps//libMaps.a(CHAPTER01_LEVEL01_TILEBANK.o)
 .debug_info    0x001b0697     0x277f ../data/Maps//libMaps.a(CHAPTER01_LEVEL02_TILEBANK.o)
 .debug_info    0x001b2e16     0x277f ../data/Maps//libMaps.a(CHAPTER01_LEVEL03_TILEBANK.o)
 .debug_info    0x001b5595     0x277f ../data/Maps//libMaps.a(CHAPTER01_LEVEL04_TILEBANK.o)
 .debug_info    0x001b7d14     0x277f ../data/Maps//libMaps.a(CHAPTER02_LEVEL01_TILEBANK.o)
 .debug_info    0x001ba493     0x277f ../data/Maps//libMaps.a(CHAPTER02_LEVEL02_TILEBANK.o)
 .debug_info    0x001bcc12     0x277f ../data/Maps//libMaps.a(CHAPTER02_LEVEL03_TILEBANK.o)
 .debug_info    0x001bf391     0x277f ../data/Maps//libMaps.a(CHAPTER02_LEVEL04_TILEBANK.o)
 .debug_info    0x001c1b10     0x277f ../data/Maps//libMaps.a(CHAPTER03_LEVEL01_TILEBANK.o)
 .debug_info    0x001c428f     0x277f ../data/Maps//libMaps.a(CHAPTER03_LEVEL02_TILEBANK.o)
 .debug_info    0x001c6a0e     0x277f ../data/Maps//libMaps.a(CHAPTER03_LEVEL03_TILEBANK.o)
 .debug_info    0x001c918d     0x277f ../data/Maps//libMaps.a(CHAPTER03_LEVEL04_TILEBANK.o)
 .debug_info    0x001cb90c     0x277f ../data/Maps//libMaps.a(CHAPTER04_LEVEL01_TILEBANK.o)
 .debug_info    0x001ce08b     0x277f ../data/Maps//libMaps.a(CHAPTER04_LEVEL02_TILEBANK.o)
 .debug_info    0x001d080a     0x277f ../data/Maps//libMaps.a(CHAPTER04_LEVEL03_TILEBANK.o)
 .debug_info    0x001d2f89     0x277f ../data/Maps//libMaps.a(CHAPTER04_LEVEL04_TILEBANK.o)
 .debug_info    0x001d5708     0x277f ../data/Maps//libMaps.a(CHAPTER05_LEVEL01_TILEBANK.o)
 .debug_info    0x001d7e87     0x277f ../data/Maps//libMaps.a(CHAPTER05_LEVEL02_TILEBANK.o)
 .debug_info    0x001da606     0x277f ../data/Maps//libMaps.a(CHAPTER05_LEVEL03_TILEBANK.o)
 .debug_info    0x001dcd85     0x277f ../data/Maps//libMaps.a(CHAPTER05_LEVEL04_TILEBANK.o)
 .debug_info    0x001df504     0x277f ../data/Maps//libMaps.a(CHAPTER06_LEVEL01_TILEBANK.o)
 .debug_info    0x001e1c83     0x277f ../data/Maps//libMaps.a(CHAPTER06_LEVEL03_TILEBANK.o)
 .debug_info    0x001e4402     0x277f ../data/Maps//libMaps.a(CHAPTER06_LEVEL05_TILEBANK.o)
 .debug_info    0x001e6b81     0x274d ../data/Sprites/SpongeBob//libSpongeBob_Sprs.a(buttbounceend0001_RL.o)
 .debug_info    0x001e92ce     0x274d ../data/Sprites/SpongeBob//libSpongeBob_Sprs.a(buttbounceend0003_RL.o)
 .debug_info    0x001eba1b     0x274d ../data/Sprites/SpongeBob//libSpongeBob_Sprs.a(buttbounceend0005_RL.o)
 .debug_info    0x001ee168     0x274d ../data/Sprites/SpongeBob//libSpongeBob_Sprs.a(buttbounceend0007_RL.o)
 .debug_info    0x001f08b5     0x2751 ../data/Sprites/SpongeBob//libSpongeBob_Sprs.a(buttbouncestart0001_RL.o)
 .debug_info    0x001f3006     0x2751 ../data/Sprites/SpongeBob//libSpongeBob_Sprs.a(buttbouncestart0003_RL.o)
 .debug_info    0x001f5757     0x2751 ../data/Sprites/SpongeBob//libSpongeBob_Sprs.a(buttbouncestart0005_RL.o)
 .debug_info    0x001f7ea8     0x2751 ../data/Sprites/SpongeBob//libSpongeBob_Sprs.a(buttbouncestart0007_RL.o)
 .debug_info    0x001fa5f9     0x274f ../data/Sprites/SpongeBob//libSpongeBob_Sprs.a(deathbackwards0001_RL.o)
 .debug_info    0x001fcd48     0x274f ../data/Sprites/SpongeBob//libSpongeBob_Sprs.a(deathbackwards0003_RL.o)
 .debug_info    0x001ff497     0x274f ../data/Sprites/SpongeBob//libSpongeBob_Sprs.a(deathbackwards0005_RL.o)
 .debug_info    0x00201be6     0x274e ../data/Sprites/SpongeBob//libSpongeBob_Sprs.a(deathbackwards0007_RL.o)
 .debug_info    0x00204334     0x274e ../data/Sprites/SpongeBob//libSpongeBob_Sprs.a(deathbackwards0009_RL.o)
 .debug_info    0x00206a82     0x274e ../data/Sprites/SpongeBob//libSpongeBob_Sprs.a(deathbackwards0011_RL.o)
 .debug_info    0x002091d0     0x274e ../data/Sprites/SpongeBob//libSpongeBob_Sprs.a(deathbackwards0013_RL.o)
 .debug_info    0x0020b91e     0x274e ../data/Sprites/SpongeBob//libSpongeBob_Sprs.a(deathbackwards0015_RL.o)
 .debug_info    0x0020e06c     0x2743 ../data/Sprites/SpongeBob//libSpongeBob_Sprs.a(deathdry0001_RL.o)
 .debug_info    0x002107af     0x2743 ../data/Sprites/SpongeBob//libSpongeBob_Sprs.a(deathdry0003_RL.o)
 .debug_info    0x00212ef2     0x2743 ../data/Sprites/SpongeBob//libSpongeBob_Sprs.a(deathdry0005_RL.o)
 .debug_info    0x00215635     0x2743 ../data/Sprites/SpongeBob//libSpongeBob_Sprs.a(deathdry0007_RL.o)
 .debug_info    0x00217d78     0x2743 ../data/Sprites/SpongeBob//libSpongeBob_Sprs.a(deathdry0009_RL.o)
 .debug_info    0x0021a4bb     0x2743 ../data/Sprites/SpongeBob//libSpongeBob_Sprs.a(deathdry0011_RL.o)
 .debug_info    0x0021cbfe     0x2743 ../data/Sprites/SpongeBob//libSpongeBob_Sprs.a(deathdry0013_RL.o)
 .debug_info    0x0021f341     0x2743 ../data/Sprites/SpongeBob//libSpongeBob_Sprs.a(deathdry0015_RL.o)
 .debug_info    0x00221a84     0x274d ../data/Sprites/SpongeBob//libSpongeBob_Sprs.a(deathforwards0001_RL.o)
 .debug_info    0x002241d1     0x274d ../data/Sprites/SpongeBob//libSpongeBob_Sprs.a(deathforwards0003_RL.o)
 .debug_info    0x0022691e     0x274d ../data/Sprites/SpongeBob//libSpongeBob_Sprs.a(deathforwards0005_RL.o)
 .debug_info    0x0022906b     0x274d ../data/Sprites/SpongeBob//libSpongeBob_Sprs.a(deathforwards0007_RL.o)
 .debug_info    0x0022b7b8     0x274d ../data/Sprites/SpongeBob//libSpongeBob_Sprs.a(deathforwards0009_RL.o)
 .debug_info    0x0022df05     0x274d ../data/Sprites/SpongeBob//libSpongeBob_Sprs.a(deathforwards0011_RL.o)
 .debug_info    0x00230652     0x274d ../data/Sprites/SpongeBob//libSpongeBob_Sprs.a(deathforwards0013_RL.o)
 .debug_info    0x00232d9f     0x274c ../data/Sprites/SpongeBob//libSpongeBob_Sprs.a(deathforwards0015_RL.o)
 .debug_info    0x002354eb     0x2745 ../data/Sprites/SpongeBob//libSpongeBob_Sprs.a(deathspin0001_RL.o)
 .debug_info    0x00237c30     0x2745 ../data/Sprites/SpongeBob//libSpongeBob_Sprs.a(deathspin0003_RL.o)
 .debug_info    0x0023a375     0x2745 ../data/Sprites/SpongeBob//libSpongeBob_Sprs.a(deathspin0005_RL.o)
 .debug_info    0x0023caba     0x2745 ../data/Sprites/SpongeBob//libSpongeBob_Sprs.a(deathspin0007_RL.o)
 .debug_info    0x0023f1ff     0x2745 ../data/Sprites/SpongeBob//libSpongeBob_Sprs.a(deathspin0009_RL.o)
 .debug_info    0x00241944     0x2745 ../data/Sprites/SpongeBob//libSpongeBob_Sprs.a(deathspin0011_RL.o)
 .debug_info    0x00244089     0x2745 ../data/Sprites/SpongeBob//libSpongeBob_Sprs.a(deathspin0013_RL.o)
 .debug_info    0x002467ce     0x2745 ../data/Sprites/SpongeBob//libSpongeBob_Sprs.a(deathspin0015_RL.o)
 .debug_info    0x00248f13     0x2749 ../data/Sprites/SpongeBob//libSpongeBob_Sprs.a(deathsquash0001_RL.o)
 .debug_info    0x0024b65c     0x2749 ../data/Sprites/SpongeBob//libSpongeBob_Sprs.a(deathsquash0003_RL.o)
 .debug_info    0x0024dda5     0x2749 ../data/Sprites/SpongeBob//libSpongeBob_Sprs.a(deathsquash0005_RL.o)
 .debug_info    0x002504ee     0x2749 ../data/Sprites/SpongeBob//libSpongeBob_Sprs.a(deathsquash0007_RL.o)
 .debug_info    0x00252c37     0x2749 ../data/Sprites/SpongeBob//libSpongeBob_Sprs.a(deathsquash0009_RL.o)
 .debug_info    0x00255380     0x2748 ../data/Sprites/SpongeBob//libSpongeBob_Sprs.a(deathsquash0011_RL.o)
 .debug_info    0x00257ac8     0x2749 ../data/Sprites/SpongeBob//libSpongeBob_Sprs.a(deathsquash0013_RL.o)
 .debug_info    0x0025a211     0x2748 ../data/Sprites/SpongeBob//libSpongeBob_Sprs.a(deathsquash0015_RL.o)
 .debug_info    0x0025c959     0x2743 ../data/Sprites/SpongeBob//libSpongeBob_Sprs.a(deathtar0001_RL.o)
 .debug_info    0x0025f09c     0x2743 ../data/Sprites/SpongeBob//libSpongeBob_Sprs.a(deathtar0003_RL.o)
 .debug_info    0x002617df     0x2743 ../data/Sprites/SpongeBob//libSpongeBob_Sprs.a(deathtar0005_RL.o)
 .debug_info    0x00263f22     0x2743 ../data/Sprites/SpongeBob//libSpongeBob_Sprs.a(deathtar0007_RL.o)
 .debug_info    0x00266665     0x274d ../data/Sprites/SpongeBob//libSpongeBob_Sprs.a(deathtarstart0001_RL.o)
 .debug_info    0x00268db2     0x274d ../data/Sprites/SpongeBob//libSpongeBob_Sprs.a(deathtarstart0003_RL.o)
 .debug_info    0x0026b4ff     0x274d ../data/Sprites/SpongeBob//libSpongeBob_Sprs.a(deathtarstart0005_RL.o)
 .debug_info    0x0026dc4c     0x274d ../data/Sprites/SpongeBob//libSpongeBob_Sprs.a(deathtarstart0007_RL.o)
 .debug_info    0x00270399     0x274d ../data/Sprites/SpongeBob//libSpongeBob_Sprs.a(electricshock0001_RL.o)
 .debug_info    0x00272ae6     0x274d ../data/Sprites/SpongeBob//libSpongeBob_Sprs.a(electricshock0003_RL.o)
 .debug_info    0x00275233     0x274d ../data/Sprites/SpongeBob//libSpongeBob_Sprs.a(electricshock0005_RL.o)
 .debug_info    0x00277980     0x274d ../data/Sprites/SpongeBob//libSpongeBob_Sprs.a(electricshock0007_RL.o)
 .debug_info    0x0027a0cd     0x2753 ../data/Sprites/SpongeBob//libSpongeBob_Sprs.a(electricshockend0000_RL.o)
 .debug_info    0x0027c820     0x2753 ../data/Sprites/SpongeBob//libSpongeBob_Sprs.a(electricshockend0001_RL.o)
 .debug_info    0x0027ef73     0x2757 ../data/Sprites/SpongeBob//libSpongeBob_Sprs.a(electricshockstart0000_RL.o)
 .debug_info    0x002816ca     0x2757 ../data/Sprites/SpongeBob//libSpongeBob_Sprs.a(electricshockstart0001_RL.o)
 .debug_info    0x00283e21     0x2743 ../data/Sprites/SpongeBob//libSpongeBob_Sprs.a(faceback0001_RL.o)
 .debug_info    0x00286564     0x2743 ../data/Sprites/SpongeBob//libSpongeBob_Sprs.a(faceback0003_RL.o)
 .debug_info    0x00288ca7     0x2743 ../data/Sprites/SpongeBob//libSpongeBob_Sprs.a(faceback0005_RL.o)
 .debug_info    0x0028b3ea     0x2743 ../data/Sprites/SpongeBob//libSpongeBob_Sprs.a(faceback0007_RL.o)
 .debug_info    0x0028db2d     0x2745 ../data/Sprites/SpongeBob//libSpongeBob_Sprs.a(facefront0000_RL.o)
 .debug_info    0x00290272     0x2745 ../data/Sprites/SpongeBob//libSpongeBob_Sprs.a(facefront0001_RL.o)
 .debug_info    0x002929b7     0x273a ../data/Sprites/SpongeBob//libSpongeBob_Sprs.a(fall0001_RL.o)
 .debug_info    0x002950f1     0x273b ../data/Sprites/SpongeBob//libSpongeBob_Sprs.a(fall0003_RL.o)
 .debug_info    0x0029782c     0x273a ../data/Sprites/SpongeBob//libSpongeBob_Sprs.a(fall0005_RL.o)
 .debug_info    0x00299f66     0x2741 ../data/Sprites/SpongeBob//libSpongeBob_Sprs.a(fireend0000_RL.o)
 .debug_info    0x0029c6a7     0x2741 ../data/Sprites/SpongeBob//libSpongeBob_Sprs.a(fireend0001_RL.o)
 .debug_info    0x0029ede8     0x2745 ../data/Sprites/SpongeBob//libSpongeBob_Sprs.a(firestart0000_RL.o)
 .debug_info    0x002a152d     0x2745 ../data/Sprites/SpongeBob//libSpongeBob_Sprs.a(firestart0001_RL.o)
 .debug_info    0x002a3c72     0x2745 ../data/Sprites/SpongeBob//libSpongeBob_Sprs.a(firestart0002_RL.o)
 .debug_info    0x002a63b7     0x2745 ../data/Sprites/SpongeBob//libSpongeBob_Sprs.a(firestart0003_RL.o)
 .debug_info    0x002a8afc     0x273c ../data/Sprites/SpongeBob//libSpongeBob_Sprs.a(getup0001_RL.o)
 .debug_info    0x002ab238     0x273d ../data/Sprites/SpongeBob//libSpongeBob_Sprs.a(getup0003_RL.o)
 .debug_info    0x002ad975     0x273d ../data/Sprites/SpongeBob//libSpongeBob_Sprs.a(getup0005_RL.o)
 .debug_info    0x002b00b2     0x273d ../data/Sprites/SpongeBob//libSpongeBob_Sprs.a(getup0007_RL.o)
 .debug_info    0x002b27ef     0x2743 ../data/Sprites/SpongeBob//libSpongeBob_Sprs.a(getuprun0001_RL.o)
 .debug_info    0x002b4f32     0x2743 ../data/Sprites/SpongeBob//libSpongeBob_Sprs.a(getuprun0003_RL.o)
 .debug_info    0x002b7675     0x2743 ../data/Sprites/SpongeBob//libSpongeBob_Sprs.a(getuprun0005_RL.o)
 .debug_info    0x002b9db8     0x2743 ../data/Sprites/SpongeBob//libSpongeBob_Sprs.a(getuprun0007_RL.o)
 .debug_info    0x002bc4fb     0x2744 ../data/Sprites/SpongeBob//libSpongeBob_Sprs.a(hitground0001_RL.o)
 .debug_info    0x002bec3f     0x2744 ../data/Sprites/SpongeBob//libSpongeBob_Sprs.a(hitground0003_RL.o)
 .debug_info    0x002c1383     0x2744 ../data/Sprites/SpongeBob//libSpongeBob_Sprs.a(hitground0005_RL.o)
 .debug_info    0x002c3ac7     0x2744 ../data/Sprites/SpongeBob//libSpongeBob_Sprs.a(hitground0007_RL.o)
 .debug_info    0x002c620b     0x273c ../data/Sprites/SpongeBob//libSpongeBob_Sprs.a(hover0001_RL.o)
 .debug_info    0x002c8947     0x273c ../data/Sprites/SpongeBob//libSpongeBob_Sprs.a(hover0003_RL.o)
 .debug_info    0x002cb083     0x273c ../data/Sprites/SpongeBob//libSpongeBob_Sprs.a(hover0005_RL.o)
 .debug_info    0x002cd7bf     0x273c ../data/Sprites/SpongeBob//libSpongeBob_Sprs.a(hover0007_RL.o)
 .debug_info    0x002cfefb     0x2743 ../data/Sprites/SpongeBob//libSpongeBob_Sprs.a(hoverend0000_RL.o)
 .debug_info    0x002d263e     0x2743 ../data/Sprites/SpongeBob//libSpongeBob_Sprs.a(hoverend0001_RL.o)
 .debug_info    0x002d4d81     0x2747 ../data/Sprites/SpongeBob//libSpongeBob_Sprs.a(hoverstart0000_RL.o)
 .debug_info    0x002d74c8     0x2747 ../data/Sprites/SpongeBob//libSpongeBob_Sprs.a(hoverstart0001_RL.o)
 .debug_info    0x002d9c0f     0x274e ../data/Sprites/SpongeBob//libSpongeBob_Sprs.a(idlebouncehead0001_RL.o)
 .debug_info    0x002dc35d     0x274e ../data/Sprites/SpongeBob//libSpongeBob_Sprs.a(idlebouncehead0003_RL.o)
 .debug_info    0x002deaab     0x274e ../data/Sprites/SpongeBob//libSpongeBob_Sprs.a(idlebouncehead0005_RL.o)
 .debug_info    0x002e11f9     0x274e ../data/Sprites/SpongeBob//libSpongeBob_Sprs.a(idlebouncehead0007_RL.o)
 .debug_info    0x002e3947     0x274e ../data/Sprites/SpongeBob//libSpongeBob_Sprs.a(idlebouncehead0009_RL.o)
 .debug_info    0x002e6095     0x274e ../data/Sprites/SpongeBob//libSpongeBob_Sprs.a(idlebouncehead0011_RL.o)
 .debug_info    0x002e87e3     0x274e ../data/Sprites/SpongeBob//libSpongeBob_Sprs.a(idlebouncehead0013_RL.o)
 .debug_info    0x002eaf31     0x274e ../data/Sprites/SpongeBob//libSpongeBob_Sprs.a(idlebouncehead0015_RL.o)
 .debug_info    0x002ed67f     0x2754 ../data/Sprites/SpongeBob//libSpongeBob_Sprs.a(idlebounceheadend0001_RL.o)
 .debug_info    0x002efdd3     0x2754 ../data/Sprites/SpongeBob//libSpongeBob_Sprs.a(idlebounceheadend0003_RL.o)
 .debug_info    0x002f2527     0x2754 ../data/Sprites/SpongeBob//libSpongeBob_Sprs.a(idlebounceheadend0005_RL.o)
 .debug_info    0x002f4c7b     0x2754 ../data/Sprites/SpongeBob//libSpongeBob_Sprs.a(idlebounceheadend0007_RL.o)
 .debug_info    0x002f73cf     0x2759 ../data/Sprites/SpongeBob//libSpongeBob_Sprs.a(idlebounceheadstart0001_RL.o)
 .debug_info    0x002f9b28     0x2759 ../data/Sprites/SpongeBob//libSpongeBob_Sprs.a(idlebounceheadstart0003_RL.o)
 .debug_info    0x002fc281     0x2759 ../data/Sprites/SpongeBob//libSpongeBob_Sprs.a(idlebounceheadstart0005_RL.o)
 .debug_info    0x002fe9da     0x2759 ../data/Sprites/SpongeBob//libSpongeBob_Sprs.a(idlebounceheadstart0007_RL.o)
 .debug_info    0x00301133     0x2749 ../data/Sprites/SpongeBob//libSpongeBob_Sprs.a(idlebreathe0000_RL.o)
 .debug_info    0x0030387c     0x2749 ../data/Sprites/SpongeBob//libSpongeBob_Sprs.a(idlebreathe0001_RL.o)
 .debug_info    0x00305fc5     0x2749 ../data/Sprites/SpongeBob//libSpongeBob_Sprs.a(idlebreathe0002_RL.o)
 .debug_info    0x0030870e     0x2749 ../data/Sprites/SpongeBob//libSpongeBob_Sprs.a(idlebreathe0003_RL.o)
 .debug_info    0x0030ae57     0x2744 ../data/Sprites/SpongeBob//libSpongeBob_Sprs.a(idlefaces0001_RL.o)
 .debug_info    0x0030d59b     0x2744 ../data/Sprites/SpongeBob//libSpongeBob_Sprs.a(idlefaces0003_RL.o)
 .debug_info    0x0030fcdf     0x2745 ../data/Sprites/SpongeBob//libSpongeBob_Sprs.a(idlefaces0005_RL.o)
 .debug_info    0x00312424     0x2745 ../data/Sprites/SpongeBob//libSpongeBob_Sprs.a(idlefaces0007_RL.o)
 .debug_info    0x00314b69     0x274b ../data/Sprites/SpongeBob//libSpongeBob_Sprs.a(idlefacesend0001_RL.o)
 .debug_info    0x003172b4     0x274b ../data/Sprites/SpongeBob//libSpongeBob_Sprs.a(idlefacesend0003_RL.o)
 .debug_info    0x003199ff     0x274b ../data/Sprites/SpongeBob//libSpongeBob_Sprs.a(idlefacesend0005_RL.o)
 .debug_info    0x0031c14a     0x274b ../data/Sprites/SpongeBob//libSpongeBob_Sprs.a(idlefacesend0007_RL.o)
 .debug_info    0x0031e895     0x274f ../data/Sprites/SpongeBob//libSpongeBob_Sprs.a(idlefacesstart0000_RL.o)
 .debug_info    0x00320fe4     0x274f ../data/Sprites/SpongeBob//libSpongeBob_Sprs.a(idlefacesstart0001_RL.o)
 .debug_info    0x00323733     0x2745 ../data/Sprites/SpongeBob//libSpongeBob_Sprs.a(idlehoola0001_RL.o)
 .debug_info    0x00325e78     0x2745 ../data/Sprites/SpongeBob//libSpongeBob_Sprs.a(idlehoola0003_RL.o)
 .debug_info    0x003285bd     0x2745 ../data/Sprites/SpongeBob//libSpongeBob_Sprs.a(idlehoola0005_RL.o)
 .debug_info    0x0032ad02     0x2745 ../data/Sprites/SpongeBob//libSpongeBob_Sprs.a(idlehoola0007_RL.o)
 .debug_info    0x0032d447     0x2745 ../data/Sprites/SpongeBob//libSpongeBob_Sprs.a(idlehoola0009_RL.o)
 .debug_info    0x0032fb8c     0x2745 ../data/Sprites/SpongeBob//libSpongeBob_Sprs.a(idlehoola0011_RL.o)
 .debug_info    0x003322d1     0x2745 ../data/Sprites/SpongeBob//libSpongeBob_Sprs.a(idlehoola0013_RL.o)
 .debug_info    0x00334a16     0x2745 ../data/Sprites/SpongeBob//libSpongeBob_Sprs.a(idlehoola0015_RL.o)
 .debug_info    0x0033715b     0x2747 ../data/Sprites/SpongeBob//libSpongeBob_Sprs.a(idlekarate0001_RL.o)
 .debug_info    0x003398a2     0x2747 ../data/Sprites/SpongeBob//libSpongeBob_Sprs.a(idlekarate0003_RL.o)
 .debug_info    0x0033bfe9     0x2747 ../data/Sprites/SpongeBob//libSpongeBob_Sprs.a(idlekarate0005_RL.o)
 .debug_info    0x0033e730     0x2747 ../data/Sprites/SpongeBob//libSpongeBob_Sprs.a(idlekarate0007_RL.o)
 .debug_info    0x00340e77     0x2747 ../data/Sprites/SpongeBob//libSpongeBob_Sprs.a(idlekarate0009_RL.o)
 .debug_info    0x003435be     0x2747 ../data/Sprites/SpongeBob//libSpongeBob_Sprs.a(idlekarate0011_RL.o)
 .debug_info    0x00345d05     0x2747 ../data/Sprites/SpongeBob//libSpongeBob_Sprs.a(idlekarate0013_RL.o)
 .debug_info    0x0034844c     0x2747 ../data/Sprites/SpongeBob//libSpongeBob_Sprs.a(idlekarate0015_RL.o)
 .debug_info    0x0034ab93     0x2745 ../data/Sprites/SpongeBob//libSpongeBob_Sprs.a(idlesleep0001_RL.o)
 .debug_info    0x0034d2d8     0x2745 ../data/Sprites/SpongeBob//libSpongeBob_Sprs.a(idlesleep0003_RL.o)
 .debug_info    0x0034fa1d     0x2745 ../data/Sprites/SpongeBob//libSpongeBob_Sprs.a(idlesleep0005_RL.o)
 .debug_info    0x00352162     0x2745 ../data/Sprites/SpongeBob//libSpongeBob_Sprs.a(idlesleep0007_RL.o)
 .debug_info    0x003548a7     0x274b ../data/Sprites/SpongeBob//libSpongeBob_Sprs.a(idlesleepend0001_RL.o)
 .debug_info    0x00356ff2     0x274b ../data/Sprites/SpongeBob//libSpongeBob_Sprs.a(idlesleepend0003_RL.o)
 .debug_info    0x0035973d     0x274f ../data/Sprites/SpongeBob//libSpongeBob_Sprs.a(idlesleepstart0001_RL.o)
 .debug_info    0x0035be8c     0x274f ../data/Sprites/SpongeBob//libSpongeBob_Sprs.a(idlesleepstart0003_RL.o)
 .debug_info    0x0035e5db     0x274f ../data/Sprites/SpongeBob//libSpongeBob_Sprs.a(idlesplitpants0001_RL.o)
 .debug_info    0x00360d2a     0x274f ../data/Sprites/SpongeBob//libSpongeBob_Sprs.a(idlesplitpants0003_RL.o)
 .debug_info    0x00363479     0x274e ../data/Sprites/SpongeBob//libSpongeBob_Sprs.a(idlesplitpants0005_RL.o)
 .debug_info    0x00365bc7     0x274e ../data/Sprites/SpongeBob//libSpongeBob_Sprs.a(idlesplitpants0007_RL.o)
 .debug_info    0x00368315     0x274e ../data/Sprites/SpongeBob//libSpongeBob_Sprs.a(idlesplitpants0009_RL.o)
 .debug_info    0x0036aa63     0x274f ../data/Sprites/SpongeBob//libSpongeBob_Sprs.a(idlesplitpants0011_RL.o)
 .debug_info    0x0036d1b2     0x274f ../data/Sprites/SpongeBob//libSpongeBob_Sprs.a(idlesplitpants0013_RL.o)
 .debug_info    0x0036f901     0x274f ../data/Sprites/SpongeBob//libSpongeBob_Sprs.a(idlesplitpants0015_RL.o)
 .debug_info    0x00372050     0x274f ../data/Sprites/SpongeBob//libSpongeBob_Sprs.a(idlesplitpants0017_RL.o)
 .debug_info    0x0037479f     0x274f ../data/Sprites/SpongeBob//libSpongeBob_Sprs.a(idlesplitpants0019_RL.o)
 .debug_info    0x00376eee     0x274f ../data/Sprites/SpongeBob//libSpongeBob_Sprs.a(idlesplitpants0021_RL.o)
 .debug_info    0x0037963d     0x274f ../data/Sprites/SpongeBob//libSpongeBob_Sprs.a(idlesplitpants0023_RL.o)
 .debug_info    0x0037bd8c     0x2747 ../data/Sprites/SpongeBob//libSpongeBob_Sprs.a(idleweapon0001_RL.o)
 .debug_info    0x0037e4d3     0x2747 ../data/Sprites/SpongeBob//libSpongeBob_Sprs.a(idleweapon0003_RL.o)
 .debug_info    0x00380c1a     0x2747 ../data/Sprites/SpongeBob//libSpongeBob_Sprs.a(idleweapon0005_RL.o)
 .debug_info    0x00383361     0x2747 ../data/Sprites/SpongeBob//libSpongeBob_Sprs.a(idleweapon0007_RL.o)
 .debug_info    0x00385aa8     0x2747 ../data/Sprites/SpongeBob//libSpongeBob_Sprs.a(idleweapon0009_RL.o)
 .debug_info    0x003881ef     0x2747 ../data/Sprites/SpongeBob//libSpongeBob_Sprs.a(idleweapon0011_RL.o)
 .debug_info    0x0038a936     0x2747 ../data/Sprites/SpongeBob//libSpongeBob_Sprs.a(idleweapon0013_RL.o)
 .debug_info    0x0038d07d     0x2747 ../data/Sprites/SpongeBob//libSpongeBob_Sprs.a(idleweapon0015_RL.o)
 .debug_info    0x0038f7c4     0x274f ../data/Sprites/SpongeBob//libSpongeBob_Sprs.a(idlewigglearms0001_RL.o)
 .debug_info    0x00391f13     0x274f ../data/Sprites/SpongeBob//libSpongeBob_Sprs.a(idlewigglearms0003_RL.o)
 .debug_info    0x00394662     0x274f ../data/Sprites/SpongeBob//libSpongeBob_Sprs.a(idlewigglearms0005_RL.o)
 .debug_info    0x00396db1     0x274f ../data/Sprites/SpongeBob//libSpongeBob_Sprs.a(idlewigglearms0007_RL.o)
 .debug_info    0x00399500     0x274f ../data/Sprites/SpongeBob//libSpongeBob_Sprs.a(idlewigglearms0009_RL.o)
 .debug_info    0x0039bc4f     0x274f ../data/Sprites/SpongeBob//libSpongeBob_Sprs.a(idlewigglearms0011_RL.o)
 .debug_info    0x0039e39e     0x274f ../data/Sprites/SpongeBob//libSpongeBob_Sprs.a(idlewigglearms0013_RL.o)
 .debug_info    0x003a0aed     0x274f ../data/Sprites/SpongeBob//libSpongeBob_Sprs.a(idlewigglearms0015_RL.o)
 .debug_info    0x003a323c     0x2743 ../data/Sprites/SpongeBob//libSpongeBob_Sprs.a(idlewind0001_RL.o)
 .debug_info    0x003a597f     0x2743 ../data/Sprites/SpongeBob//libSpongeBob_Sprs.a(idlewind0003_RL.o)
 .debug_info    0x003a80c2     0x2743 ../data/Sprites/SpongeBob//libSpongeBob_Sprs.a(idlewind0005_RL.o)
 .debug_info    0x003aa805     0x2743 ../data/Sprites/SpongeBob//libSpongeBob_Sprs.a(idlewind0007_RL.o)
 .debug_info    0x003acf48     0x2743 ../data/Sprites/SpongeBob//libSpongeBob_Sprs.a(idlewind0009_RL.o)
 .debug_info    0x003af68b     0x2743 ../data/Sprites/SpongeBob//libSpongeBob_Sprs.a(idlewind0011_RL.o)
 .debug_info    0x003b1dce     0x2743 ../data/Sprites/SpongeBob//libSpongeBob_Sprs.a(idlewind0013_RL.o)
 .debug_info    0x003b4511     0x2743 ../data/Sprites/SpongeBob//libSpongeBob_Sprs.a(idlewind0015_RL.o)
 .debug_info    0x003b6c54     0x2741 ../data/Sprites/SpongeBob//libSpongeBob_Sprs.a(jumpend0001_RL.o)
 .debug_info    0x003b9395     0x2741 ../data/Sprites/SpongeBob//libSpongeBob_Sprs.a(jumpend0003_RL.o)
 .debug_info    0x003bbad6     0x273f ../data/Sprites/SpongeBob//libSpongeBob_Sprs.a(karate0001_RL.o)
 .debug_info    0x003be215     0x273f ../data/Sprites/SpongeBob//libSpongeBob_Sprs.a(karate0003_RL.o)
 .debug_info    0x003c0954     0x273f ../data/Sprites/SpongeBob//libSpongeBob_Sprs.a(karate0005_RL.o)
 .debug_info    0x003c3093     0x273f ../data/Sprites/SpongeBob//libSpongeBob_Sprs.a(karate0007_RL.o)
 .debug_info    0x003c57d2     0x273f ../data/Sprites/SpongeBob//libSpongeBob_Sprs.a(karate0009_RL.o)
 .debug_info    0x003c7f11     0x273f ../data/Sprites/SpongeBob//libSpongeBob_Sprs.a(karate0011_RL.o)
 .debug_info    0x003ca650     0x273f ../data/Sprites/SpongeBob//libSpongeBob_Sprs.a(karate0013_RL.o)
 .debug_info    0x003ccd8f     0x273f ../data/Sprites/SpongeBob//libSpongeBob_Sprs.a(karate0015_RL.o)
 .debug_info    0x003cf4ce     0x2747 ../data/Sprites/SpongeBob//libSpongeBob_Sprs.a(netfirelob0001_RL.o)
 .debug_info    0x003d1c15     0x2747 ../data/Sprites/SpongeBob//libSpongeBob_Sprs.a(netfirelob0003_RL.o)
 .debug_info    0x003d435c     0x2747 ../data/Sprites/SpongeBob//libSpongeBob_Sprs.a(netfirelob0005_RL.o)
 .debug_info    0x003d6aa3     0x2747 ../data/Sprites/SpongeBob//libSpongeBob_Sprs.a(netfirelob0007_RL.o)
 .debug_info    0x003d91ea     0x2747 ../data/Sprites/SpongeBob//libSpongeBob_Sprs.a(netfirelob0009_RL.o)
 .debug_info    0x003db931     0x2747 ../data/Sprites/SpongeBob//libSpongeBob_Sprs.a(netfirelob0011_RL.o)
 .debug_info    0x003de078     0x2746 ../data/Sprites/SpongeBob//libSpongeBob_Sprs.a(netfirelob0013_RL.o)
 .debug_info    0x003e07be     0x2747 ../data/Sprites/SpongeBob//libSpongeBob_Sprs.a(netfirelob0015_RL.o)
 .debug_info    0x003e2f05     0x2743 ../data/Sprites/SpongeBob//libSpongeBob_Sprs.a(netswipe0001_RL.o)
 .debug_info    0x003e5648     0x2743 ../data/Sprites/SpongeBob//libSpongeBob_Sprs.a(netswipe0003_RL.o)
 .debug_info    0x003e7d8b     0x2743 ../data/Sprites/SpongeBob//libSpongeBob_Sprs.a(netswipe0005_RL.o)
 .debug_info    0x003ea4ce     0x2743 ../data/Sprites/SpongeBob//libSpongeBob_Sprs.a(netswipe0007_RL.o)
 .debug_info    0x003ecc11     0x2743 ../data/Sprites/SpongeBob//libSpongeBob_Sprs.a(netswipe0009_RL.o)
 .debug_info    0x003ef354     0x2743 ../data/Sprites/SpongeBob//libSpongeBob_Sprs.a(netswipe0011_RL.o)
 .debug_info    0x003f1a97     0x2743 ../data/Sprites/SpongeBob//libSpongeBob_Sprs.a(netswipe0013_RL.o)
 .debug_info    0x003f41da     0x2743 ../data/Sprites/SpongeBob//libSpongeBob_Sprs.a(netswipe0015_RL.o)
 .debug_info    0x003f691d     0x2739 ../data/Sprites/SpongeBob//libSpongeBob_Sprs.a(run0000_RL.o)
 .debug_info    0x003f9056     0x2739 ../data/Sprites/SpongeBob//libSpongeBob_Sprs.a(run0001_RL.o)
 .debug_info    0x003fb78f     0x2739 ../data/Sprites/SpongeBob//libSpongeBob_Sprs.a(run0002_RL.o)
 .debug_info    0x003fdec8     0x2739 ../data/Sprites/SpongeBob//libSpongeBob_Sprs.a(run0003_RL.o)
 .debug_info    0x00400601     0x2739 ../data/Sprites/SpongeBob//libSpongeBob_Sprs.a(run0004_RL.o)
 .debug_info    0x00402d3a     0x2739 ../data/Sprites/SpongeBob//libSpongeBob_Sprs.a(run0005_RL.o)
 .debug_info    0x00405473     0x2739 ../data/Sprites/SpongeBob//libSpongeBob_Sprs.a(run0006_RL.o)
 .debug_info    0x00407bac     0x2739 ../data/Sprites/SpongeBob//libSpongeBob_Sprs.a(run0007_RL.o)
 .debug_info    0x0040a2e5     0x2739 ../data/Sprites/SpongeBob//libSpongeBob_Sprs.a(run0008_RL.o)
 .debug_info    0x0040ca1e     0x2739 ../data/Sprites/SpongeBob//libSpongeBob_Sprs.a(run0009_RL.o)
 .debug_info    0x0040f157     0x2739 ../data/Sprites/SpongeBob//libSpongeBob_Sprs.a(run0010_RL.o)
 .debug_info    0x00411890     0x2739 ../data/Sprites/SpongeBob//libSpongeBob_Sprs.a(run0011_RL.o)
 .debug_info    0x00413fc9     0x2739 ../data/Sprites/SpongeBob//libSpongeBob_Sprs.a(run0012_RL.o)
 .debug_info    0x00416702     0x2739 ../data/Sprites/SpongeBob//libSpongeBob_Sprs.a(run0013_RL.o)
 .debug_info    0x00418e3b     0x2739 ../data/Sprites/SpongeBob//libSpongeBob_Sprs.a(run0014_RL.o)
 .debug_info    0x0041b574     0x2739 ../data/Sprites/SpongeBob//libSpongeBob_Sprs.a(run0015_RL.o)
 .debug_info    0x0041dcad     0x273f ../data/Sprites/SpongeBob//libSpongeBob_Sprs.a(soakup0001_RL.o)
 .debug_info    0x004203ec     0x273f ../data/Sprites/SpongeBob//libSpongeBob_Sprs.a(soakup0003_RL.o)
 .debug_info    0x00422b2b     0x273f ../data/Sprites/SpongeBob//libSpongeBob_Sprs.a(soakup0005_RL.o)
 .debug_info    0x0042526a     0x273e ../data/Sprites/SpongeBob//libSpongeBob_Sprs.a(soakup0007_RL.o)
 .debug_info    0x004279a8     0x2749 ../data/Sprites/SpongeBob//libSpongeBob_Sprs.a(teeterfront0001_RL.o)
 .debug_info    0x0042a0f1     0x2749 ../data/Sprites/SpongeBob//libSpongeBob_Sprs.a(teeterfront0003_RL.o)
 .debug_info    0x0042c83a     0x2749 ../data/Sprites/SpongeBob//libSpongeBob_Sprs.a(teeterfront0005_RL.o)
 .debug_info    0x0042ef83     0x2749 ../data/Sprites/SpongeBob//libSpongeBob_Sprs.a(teeterfront0007_RL.o)
 .debug_info    0x004316cc     0x2749 ../data/Sprites/SpongeBob//libSpongeBob_Sprs.a(teeterfront0009_RL.o)
 .debug_info    0x00433e15     0x2749 ../data/Sprites/SpongeBob//libSpongeBob_Sprs.a(teeterfront0011_RL.o)
 .debug_info    0x0043655e     0x2749 ../data/Sprites/SpongeBob//libSpongeBob_Sprs.a(teeterfront0013_RL.o)
 .debug_info    0x00438ca7     0x2749 ../data/Sprites/SpongeBob//libSpongeBob_Sprs.a(teeterfront0015_RL.o)
 .debug_info    0x0043b3f0     0x2749 ../data/Sprites/SpongeBob//libSpongeBob_Sprs.a(walkforward0001_RL.o)
 .debug_info    0x0043db39     0x2749 ../data/Sprites/SpongeBob//libSpongeBob_Sprs.a(walkforward0003_RL.o)
 .debug_info    0x00440282     0x2749 ../data/Sprites/SpongeBob//libSpongeBob_Sprs.a(walkforward0005_RL.o)
 .debug_info    0x004429cb     0x2749 ../data/Sprites/SpongeBob//libSpongeBob_Sprs.a(walkforward0007_RL.o)
 .debug_info    0x00445114     0x2749 ../data/Sprites/SpongeBob//libSpongeBob_Sprs.a(walkforward0009_RL.o)
 .debug_info    0x0044785d     0x2749 ../data/Sprites/SpongeBob//libSpongeBob_Sprs.a(walkforward0011_RL.o)
 .debug_info    0x00449fa6     0x2749 ../data/Sprites/SpongeBob//libSpongeBob_Sprs.a(walkforward0013_RL.o)
 .debug_info    0x0044c6ef     0x2749 ../data/Sprites/SpongeBob//libSpongeBob_Sprs.a(walkforward0015_RL.o)
 .debug_info    0x0044ee38     0x2735 ../data/Sprites/NPC//libNPC_Sprs.a(patrick0001.o)
 .debug_info    0x0045156d     0x273d ../data/Sprites/Platforms//libPlatforms_Sprs.a(platform0001.o)
 .debug_info    0x00453caa     0x2744 ../data/Sprites/Monsters//libMonsters_Sprs.a(clamsidesnap0001.o)
 .debug_info    0x004563ee     0x2744 ../data/Sprites/Monsters//libMonsters_Sprs.a(clamsidesnap0003.o)
 .debug_info    0x00458b32     0x2744 ../data/Sprites/Monsters//libMonsters_Sprs.a(clamsidesnap0005.o)
 .debug_info    0x0045b276     0x2744 ../data/Sprites/Monsters//libMonsters_Sprs.a(clamsidesnap0007.o)
 .debug_info    0x0045d9ba     0x2740 ../data/Sprites/Monsters//libMonsters_Sprs.a(clamsnapup0001.o)
 .debug_info    0x004600fa     0x2740 ../data/Sprites/Monsters//libMonsters_Sprs.a(clamsnapup0003.o)
 .debug_info    0x0046283a     0x2740 ../data/Sprites/Monsters//libMonsters_Sprs.a(clamsnapup0005.o)
 .debug_info    0x00464f7a      0x1ad C:\PROGRA~1\Cygnus\thumbelf-000512\H-i686-cygwin32\bin/../lib/gcc-lib/thumb-elf/2.9-arm-000512/../../../../thumb-elf/lib/libg.a(strlen.o)

.debug_abbrev   0x00000000    0x16867
 *(.debug_abbrev)
 .debug_abbrev  0x00000000      0x201 Main.o
 .debug_abbrev  0x00000201      0x203 Game.o
 .debug_abbrev  0x00000404      0x22c Titles.o
 .debug_abbrev  0x00000630      0x1da Random.o
 .debug_abbrev  0x0000080a      0x1d9 StartUp.o
 .debug_abbrev  0x000009e3      0x232 Scroll_Engine.o
 .debug_abbrev  0x00000c15      0x20d SprEng_Control.o
 .debug_abbrev  0x00000e22      0x1e8 SprEng_Animate.o
 .debug_abbrev  0x0000100a      0x1bb SprEng_Display.o
 .debug_abbrev  0x000011c5      0x1b3 SprEng_Common.o
 .debug_abbrev  0x00001378      0x1ac SprEng_SpongeBob.o
 .debug_abbrev  0x00001524      0x19b SprEng_NPC.o
 .debug_abbrev  0x000016bf      0x19b SprEng_Platforms.o
 .debug_abbrev  0x0000185a      0x19b SprEng_Monsters.o
 .debug_abbrev  0x000019f5      0x1b7 Sinecos.o
 .debug_abbrev  0x00001bac      0x1b7 Contours.o
 .debug_abbrev  0x00001d63      0x245 Text_Sys.o
 .debug_abbrev  0x00001fa8      0x1d0 Collision.o
 .debug_abbrev  0x00002178      0x1ec Hub.o
 .debug_abbrev  0x00002364      0x1f5 Fade.o
 .debug_abbrev  0x00002559       0xe2 ../data/Titles//libTitlesGFX.a(Start_Copy.o)
 .debug_abbrev  0x0000263b       0xe2 ../data/Titles//libTitlesGFX.a(Start_THQ.o)
 .debug_abbrev  0x0000271d       0xe2 ../data/Titles//libTitlesGFX.a(Start_Nick.o)
 .debug_abbrev  0x000027ff       0xe2 ../data/Titles//libTitlesGFX.a(Start_Climax.o)
 .debug_abbrev  0x000028e1       0xca ../data/Titles//libTitlesGFX.a(libFontGame.o)
 .debug_abbrev  0x000029ab       0xca ../data/Titles//libTitlesGFX.a(libFontMenu.o)
 .debug_abbrev  0x00002a75       0xe2 ../data/Titles//libTitlesGFX.a(menuback.o)
 .debug_abbrev  0x00002b57       0xe2 ../data/Titles//libTitlesGFX.a(HubMap.o)
 .debug_abbrev  0x00002c39       0xe2 ../data/Titles//libTitlesGFX.a(menul2.o)
 .debug_abbrev  0x00002d1b       0xe2 ../data/Titles//libTitlesGFX.a(menuback2.o)
 .debug_abbrev  0x00002dfd       0xe2 ../data/Titles//libTitlesGFX.a(menuback3.o)
 .debug_abbrev  0x00002edf       0xe2 ../data/Titles//libTitlesGFX.a(menuback4.o)
 .debug_abbrev  0x00002fc1       0xe2 ../data/Titles//libTitlesGFX.a(menuback5.o)
 .debug_abbrev  0x000030a3       0xe2 ../data/Titles//libTitlesGFX.a(menuback6.o)
 .debug_abbrev  0x00003185       0xca ../data/Titles//libTitlesGFX.a(icons.o)
 .debug_abbrev  0x0000324f       0xc3 ../data/Maps//libMaps.a(CHAPTER01_LEVEL0101.o)
 .debug_abbrev  0x00003312       0xc3 ../data/Maps//libMaps.a(CHAPTER01_LEVEL0102.o)
 .debug_abbrev  0x000033d5       0xc3 ../data/Maps//libMaps.a(CHAPTER01_LEVEL0103.o)
 .debug_abbrev  0x00003498       0xc3 ../data/Maps//libMaps.a(CHAPTER01_LEVEL0104.o)
 .debug_abbrev  0x0000355b       0xc3 ../data/Maps//libMaps.a(CHAPTER01_LEVEL0105.o)
 .debug_abbrev  0x0000361e       0xc3 ../data/Maps//libMaps.a(CHAPTER01_LEVEL0201.o)
 .debug_abbrev  0x000036e1       0xc3 ../data/Maps//libMaps.a(CHAPTER01_LEVEL0204.o)
 .debug_abbrev  0x000037a4       0xc3 ../data/Maps//libMaps.a(CHAPTER01_LEVEL0301.o)
 .debug_abbrev  0x00003867       0xc3 ../data/Maps//libMaps.a(CHAPTER01_LEVEL0302.o)
 .debug_abbrev  0x0000392a       0xc3 ../data/Maps//libMaps.a(CHAPTER01_LEVEL0303.o)
 .debug_abbrev  0x000039ed       0xc3 ../data/Maps//libMaps.a(CHAPTER01_LEVEL0401.o)
 .debug_abbrev  0x00003ab0       0xc3 ../data/Maps//libMaps.a(CHAPTER02_LEVEL0101.o)
 .debug_abbrev  0x00003b73       0xc3 ../data/Maps//libMaps.a(CHAPTER02_LEVEL0102.o)
 .debug_abbrev  0x00003c36       0xc3 ../data/Maps//libMaps.a(CHAPTER02_LEVEL0103.o)
 .debug_abbrev  0x00003cf9       0xc3 ../data/Maps//libMaps.a(CHAPTER02_LEVEL0104.o)
 .debug_abbrev  0x00003dbc       0xd4 ../data/Maps//libMaps.a(CHAPTER02_LEVEL0105.o)
 .debug_abbrev  0x00003e90       0xc3 ../data/Maps//libMaps.a(CHAPTER02_LEVEL0106.o)
 .debug_abbrev  0x00003f53       0xc3 ../data/Maps//libMaps.a(CHAPTER02_LEVEL0107.o)
 .debug_abbrev  0x00004016       0xc3 ../data/Maps//libMaps.a(CHAPTER02_LEVEL0108.o)
 .debug_abbrev  0x000040d9       0xc3 ../data/Maps//libMaps.a(CHAPTER02_LEVEL0201.o)
 .debug_abbrev  0x0000419c       0xd4 ../data/Maps//libMaps.a(CHAPTER02_LEVEL0202.o)
 .debug_abbrev  0x00004270       0xc3 ../data/Maps//libMaps.a(CHAPTER02_LEVEL0203.o)
 .debug_abbrev  0x00004333       0xc3 ../data/Maps//libMaps.a(CHAPTER02_LEVEL0204.o)
 .debug_abbrev  0x000043f6       0xc3 ../data/Maps//libMaps.a(CHAPTER02_LEVEL0301.o)
 .debug_abbrev  0x000044b9       0xc3 ../data/Maps//libMaps.a(CHAPTER02_LEVEL0302.o)
 .debug_abbrev  0x0000457c       0xc3 ../data/Maps//libMaps.a(CHAPTER02_LEVEL0303.o)
 .debug_abbrev  0x0000463f       0xc3 ../data/Maps//libMaps.a(CHAPTER02_LEVEL0304.o)
 .debug_abbrev  0x00004702       0xc3 ../data/Maps//libMaps.a(CHAPTER02_LEVEL0305.o)
 .debug_abbrev  0x000047c5       0xc3 ../data/Maps//libMaps.a(CHAPTER02_LEVEL0306.o)
 .debug_abbrev  0x00004888       0xc3 ../data/Maps//libMaps.a(CHAPTER02_LEVEL0401.o)
 .debug_abbrev  0x0000494b       0xc3 ../data/Maps//libMaps.a(CHAPTER02_LEVEL0402.o)
 .debug_abbrev  0x00004a0e       0xc3 ../data/Maps//libMaps.a(CHAPTER02_LEVEL0403.o)
 .debug_abbrev  0x00004ad1       0xc3 ../data/Maps//libMaps.a(CHAPTER02_LEVEL0404.o)
 .debug_abbrev  0x00004b94       0xc3 ../data/Maps//libMaps.a(CHAPTER02_LEVEL0405.o)
 .debug_abbrev  0x00004c57       0xc3 ../data/Maps//libMaps.a(CHAPTER03_LEVEL0101.o)
 .debug_abbrev  0x00004d1a       0xc3 ../data/Maps//libMaps.a(CHAPTER03_LEVEL0102.o)
 .debug_abbrev  0x00004ddd       0xc3 ../data/Maps//libMaps.a(CHAPTER03_LEVEL0103.o)
 .debug_abbrev  0x00004ea0       0xc3 ../data/Maps//libMaps.a(CHAPTER03_LEVEL0104.o)
 .debug_abbrev  0x00004f63       0xc3 ../data/Maps//libMaps.a(CHAPTER03_LEVEL0105.o)
 .debug_abbrev  0x00005026       0xc3 ../data/Maps//libMaps.a(CHAPTER03_LEVEL0106.o)
 .debug_abbrev  0x000050e9       0xc3 ../data/Maps//libMaps.a(CHAPTER03_LEVEL0107.o)
 .debug_abbrev  0x000051ac       0xc3 ../data/Maps//libMaps.a(CHAPTER03_LEVEL0201.o)
 .debug_abbrev  0x0000526f       0xc3 ../data/Maps//libMaps.a(CHAPTER03_LEVEL0202.o)
 .debug_abbrev  0x00005332       0xc3 ../data/Maps//libMaps.a(CHAPTER03_LEVEL0203.o)
 .debug_abbrev  0x000053f5       0xc3 ../data/Maps//libMaps.a(CHAPTER03_LEVEL0204.o)
 .debug_abbrev  0x000054b8       0xc3 ../data/Maps//libMaps.a(CHAPTER03_LEVEL0205.o)
 .debug_abbrev  0x0000557b       0xc3 ../data/Maps//libMaps.a(CHAPTER03_LEVEL0206.o)
 .debug_abbrev  0x0000563e       0xc3 ../data/Maps//libMaps.a(CHAPTER03_LEVEL0207.o)
 .debug_abbrev  0x00005701       0xc3 ../data/Maps//libMaps.a(CHAPTER03_LEVEL0301.o)
 .debug_abbrev  0x000057c4       0xc3 ../data/Maps//libMaps.a(CHAPTER03_LEVEL0302.o)
 .debug_abbrev  0x00005887       0xc3 ../data/Maps//libMaps.a(CHAPTER03_LEVEL0303.o)
 .debug_abbrev  0x0000594a       0xc3 ../data/Maps//libMaps.a(CHAPTER03_LEVEL0304.o)
 .debug_abbrev  0x00005a0d       0xc3 ../data/Maps//libMaps.a(CHAPTER03_LEVEL0305.o)
 .debug_abbrev  0x00005ad0       0xc3 ../data/Maps//libMaps.a(CHAPTER03_LEVEL0306.o)
 .debug_abbrev  0x00005b93       0xc3 ../data/Maps//libMaps.a(CHAPTER03_LEVEL0401.o)
 .debug_abbrev  0x00005c56       0xc3 ../data/Maps//libMaps.a(CHAPTER03_LEVEL0402.o)
 .debug_abbrev  0x00005d19       0xc3 ../data/Maps//libMaps.a(CHAPTER03_LEVEL0403.o)
 .debug_abbrev  0x00005ddc       0xc3 ../data/Maps//libMaps.a(CHAPTER03_LEVEL0404.o)
 .debug_abbrev  0x00005e9f       0xc3 ../data/Maps//libMaps.a(CHAPTER03_LEVEL0405.o)
 .debug_abbrev  0x00005f62       0xc3 ../data/Maps//libMaps.a(CHAPTER03_LEVEL0406.o)
 .debug_abbrev  0x00006025       0xc3 ../data/Maps//libMaps.a(CHAPTER04_LEVEL0101.o)
 .debug_abbrev  0x000060e8       0xd4 ../data/Maps//libMaps.a(CHAPTER04_LEVEL0102.o)
 .debug_abbrev  0x000061bc       0xc3 ../data/Maps//libMaps.a(CHAPTER04_LEVEL0103.o)
 .debug_abbrev  0x0000627f       0xd4 ../data/Maps//libMaps.a(CHAPTER04_LEVEL0104.o)
 .debug_abbrev  0x00006353       0xc3 ../data/Maps//libMaps.a(CHAPTER04_LEVEL0201.o)
 .debug_abbrev  0x00006416       0xc3 ../data/Maps//libMaps.a(CHAPTER04_LEVEL0202.o)
 .debug_abbrev  0x000064d9       0xc3 ../data/Maps//libMaps.a(CHAPTER04_LEVEL0203.o)
 .debug_abbrev  0x0000659c       0xc3 ../data/Maps//libMaps.a(CHAPTER04_LEVEL0204.o)
 .debug_abbrev  0x0000665f       0xc3 ../data/Maps//libMaps.a(CHAPTER04_LEVEL0205.o)
 .debug_abbrev  0x00006722       0xc3 ../data/Maps//libMaps.a(CHAPTER04_LEVEL0301.o)
 .debug_abbrev  0x000067e5       0xc3 ../data/Maps//libMaps.a(CHAPTER04_LEVEL0302.o)
 .debug_abbrev  0x000068a8       0xc3 ../data/Maps//libMaps.a(CHAPTER04_LEVEL0303.o)
 .debug_abbrev  0x0000696b       0xc3 ../data/Maps//libMaps.a(CHAPTER04_LEVEL0304.o)
 .debug_abbrev  0x00006a2e       0xc3 ../data/Maps//libMaps.a(CHAPTER04_LEVEL0305.o)
 .debug_abbrev  0x00006af1       0xc3 ../data/Maps//libMaps.a(CHAPTER04_LEVEL0306.o)
 .debug_abbrev  0x00006bb4       0xc3 ../data/Maps//libMaps.a(CHAPTER04_LEVEL0401.o)
 .debug_abbrev  0x00006c77       0xc3 ../data/Maps//libMaps.a(CHAPTER04_LEVEL0402.o)
 .debug_abbrev  0x00006d3a       0xc3 ../data/Maps//libMaps.a(CHAPTER04_LEVEL0403.o)
 .debug_abbrev  0x00006dfd       0xc3 ../data/Maps//libMaps.a(CHAPTER04_LEVEL0404.o)
 .debug_abbrev  0x00006ec0       0xc3 ../data/Maps//libMaps.a(CHAPTER04_LEVEL0405.o)
 .debug_abbrev  0x00006f83       0xc3 ../data/Maps//libMaps.a(CHAPTER04_LEVEL0406.o)
 .debug_abbrev  0x00007046       0xc3 ../data/Maps//libMaps.a(CHAPTER04_LEVEL0407.o)
 .debug_abbrev  0x00007109       0xc3 ../data/Maps//libMaps.a(CHAPTER05_LEVEL0101.o)
 .debug_abbrev  0x000071cc       0xc3 ../data/Maps//libMaps.a(CHAPTER05_LEVEL0102.o)
 .debug_abbrev  0x0000728f       0xc3 ../data/Maps//libMaps.a(CHAPTER05_LEVEL0103.o)
 .debug_abbrev  0x00007352       0xc3 ../data/Maps//libMaps.a(CHAPTER05_LEVEL0201.o)
 .debug_abbrev  0x00007415       0xc3 ../data/Maps//libMaps.a(CHAPTER05_LEVEL0202.o)
 .debug_abbrev  0x000074d8       0xc3 ../data/Maps//libMaps.a(CHAPTER05_LEVEL0203.o)
 .debug_abbrev  0x0000759b       0xc3 ../data/Maps//libMaps.a(CHAPTER05_LEVEL0204.o)
 .debug_abbrev  0x0000765e       0xc3 ../data/Maps//libMaps.a(CHAPTER05_LEVEL0301.o)
 .debug_abbrev  0x00007721       0xc3 ../data/Maps//libMaps.a(CHAPTER05_LEVEL0302.o)
 .debug_abbrev  0x000077e4       0xc3 ../data/Maps//libMaps.a(CHAPTER05_LEVEL0303.o)
 .debug_abbrev  0x000078a7       0xc3 ../data/Maps//libMaps.a(CHAPTER05_LEVEL0304.o)
 .debug_abbrev  0x0000796a       0xc3 ../data/Maps//libMaps.a(CHAPTER05_LEVEL0305.o)
 .debug_abbrev  0x00007a2d       0xc3 ../data/Maps//libMaps.a(CHAPTER05_LEVEL0401.o)
 .debug_abbrev  0x00007af0       0xc3 ../data/Maps//libMaps.a(CHAPTER05_LEVEL0402.o)
 .debug_abbrev  0x00007bb3       0xc3 ../data/Maps//libMaps.a(CHAPTER05_LEVEL0403.o)
 .debug_abbrev  0x00007c76       0xc3 ../data/Maps//libMaps.a(CHAPTER05_LEVEL0404.o)
 .debug_abbrev  0x00007d39       0xc3 ../data/Maps//libMaps.a(CHAPTER05_LEVEL0405.o)
 .debug_abbrev  0x00007dfc       0xc3 ../data/Maps//libMaps.a(CHAPTER05_LEVEL0406.o)
 .debug_abbrev  0x00007ebf       0xc3 ../data/Maps//libMaps.a(CHAPTER05_LEVEL0407.o)
 .debug_abbrev  0x00007f82       0xc3 ../data/Maps//libMaps.a(CHAPTER05_LEVEL0408.o)
 .debug_abbrev  0x00008045       0xc3 ../data/Maps//libMaps.a(CHAPTER06_LEVEL0101.o)
 .debug_abbrev  0x00008108       0xc3 ../data/Maps//libMaps.a(CHAPTER06_LEVEL0102.o)
 .debug_abbrev  0x000081cb       0xc3 ../data/Maps//libMaps.a(CHAPTER06_LEVEL0301.o)
 .debug_abbrev  0x0000828e       0xc3 ../data/Maps//libMaps.a(CHAPTER06_LEVEL0302.o)
 .debug_abbrev  0x00008351       0xc3 ../data/Maps//libMaps.a(CHAPTER06_LEVEL0501.o)
 .debug_abbrev  0x00008414       0xc3 ../data/Maps//libMaps.a(CHAPTER06_LEVEL0502.o)
 .debug_abbrev  0x000084d7       0xc3 ../data/Maps//libMaps.a(CHAPTER06_LEVEL0503.o)
 .debug_abbrev  0x0000859a       0xc3 ../data/Maps//libMaps.a(CHAPTER06_LEVEL0504.o)
 .debug_abbrev  0x0000865d       0xc3 ../data/Maps//libMaps.a(CHAPTER06_LEVEL0505.o)
 .debug_abbrev  0x00008720       0xdb ../data/Maps//libMaps.a(CHAPTER01_LEVEL01_TILEBANK.o)
 .debug_abbrev  0x000087fb       0xdb ../data/Maps//libMaps.a(CHAPTER01_LEVEL02_TILEBANK.o)
 .debug_abbrev  0x000088d6       0xdb ../data/Maps//libMaps.a(CHAPTER01_LEVEL03_TILEBANK.o)
 .debug_abbrev  0x000089b1       0xdb ../data/Maps//libMaps.a(CHAPTER01_LEVEL04_TILEBANK.o)
 .debug_abbrev  0x00008a8c       0xdb ../data/Maps//libMaps.a(CHAPTER02_LEVEL01_TILEBANK.o)
 .debug_abbrev  0x00008b67       0xdb ../data/Maps//libMaps.a(CHAPTER02_LEVEL02_TILEBANK.o)
 .debug_abbrev  0x00008c42       0xdb ../data/Maps//libMaps.a(CHAPTER02_LEVEL03_TILEBANK.o)
 .debug_abbrev  0x00008d1d       0xdb ../data/Maps//libMaps.a(CHAPTER02_LEVEL04_TILEBANK.o)
 .debug_abbrev  0x00008df8       0xdb ../data/Maps//libMaps.a(CHAPTER03_LEVEL01_TILEBANK.o)
 .debug_abbrev  0x00008ed3       0xdb ../data/Maps//libMaps.a(CHAPTER03_LEVEL02_TILEBANK.o)
 .debug_abbrev  0x00008fae       0xdb ../data/Maps//libMaps.a(CHAPTER03_LEVEL03_TILEBANK.o)
 .debug_abbrev  0x00009089       0xdb ../data/Maps//libMaps.a(CHAPTER03_LEVEL04_TILEBANK.o)
 .debug_abbrev  0x00009164       0xdb ../data/Maps//libMaps.a(CHAPTER04_LEVEL01_TILEBANK.o)
 .debug_abbrev  0x0000923f       0xdb ../data/Maps//libMaps.a(CHAPTER04_LEVEL02_TILEBANK.o)
 .debug_abbrev  0x0000931a       0xdb ../data/Maps//libMaps.a(CHAPTER04_LEVEL03_TILEBANK.o)
 .debug_abbrev  0x000093f5       0xdb ../data/Maps//libMaps.a(CHAPTER04_LEVEL04_TILEBANK.o)
 .debug_abbrev  0x000094d0       0xdb ../data/Maps//libMaps.a(CHAPTER05_LEVEL01_TILEBANK.o)
 .debug_abbrev  0x000095ab       0xdb ../data/Maps//libMaps.a(CHAPTER05_LEVEL02_TILEBANK.o)
 .debug_abbrev  0x00009686       0xdb ../data/Maps//libMaps.a(CHAPTER05_LEVEL03_TILEBANK.o)
 .debug_abbrev  0x00009761       0xdb ../data/Maps//libMaps.a(CHAPTER05_LEVEL04_TILEBANK.o)
 .debug_abbrev  0x0000983c       0xdb ../data/Maps//libMaps.a(CHAPTER06_LEVEL01_TILEBANK.o)
 .debug_abbrev  0x00009917       0xdb ../data/Maps//libMaps.a(CHAPTER06_LEVEL03_TILEBANK.o)
 .debug_abbrev  0x000099f2       0xdb ../data/Maps//libMaps.a(CHAPTER06_LEVEL05_TILEBANK.o)
 .debug_abbrev  0x00009acd       0xca ../data/Sprites/SpongeBob//libSpongeBob_Sprs.a(buttbounceend0001_RL.o)
 .debug_abbrev  0x00009b97       0xca ../data/Sprites/SpongeBob//libSpongeBob_Sprs.a(buttbounceend0003_RL.o)
 .debug_abbrev  0x00009c61       0xca ../data/Sprites/SpongeBob//libSpongeBob_Sprs.a(buttbounceend0005_RL.o)
 .debug_abbrev  0x00009d2b       0xca ../data/Sprites/SpongeBob//libSpongeBob_Sprs.a(buttbounceend0007_RL.o)
 .debug_abbrev  0x00009df5       0xca ../data/Sprites/SpongeBob//libSpongeBob_Sprs.a(buttbouncestart0001_RL.o)
 .debug_abbrev  0x00009ebf       0xca ../data/Sprites/SpongeBob//libSpongeBob_Sprs.a(buttbouncestart0003_RL.o)
 .debug_abbrev  0x00009f89       0xca ../data/Sprites/SpongeBob//libSpongeBob_Sprs.a(buttbouncestart0005_RL.o)
 .debug_abbrev  0x0000a053       0xca ../data/Sprites/SpongeBob//libSpongeBob_Sprs.a(buttbouncestart0007_RL.o)
 .debug_abbrev  0x0000a11d       0xca ../data/Sprites/SpongeBob//libSpongeBob_Sprs.a(deathbackwards0001_RL.o)
 .debug_abbrev  0x0000a1e7       0xca ../data/Sprites/SpongeBob//libSpongeBob_Sprs.a(deathbackwards0003_RL.o)
 .debug_abbrev  0x0000a2b1       0xca ../data/Sprites/SpongeBob//libSpongeBob_Sprs.a(deathbackwards0005_RL.o)
 .debug_abbrev  0x0000a37b       0xca ../data/Sprites/SpongeBob//libSpongeBob_Sprs.a(deathbackwards0007_RL.o)
 .debug_abbrev  0x0000a445       0xca ../data/Sprites/SpongeBob//libSpongeBob_Sprs.a(deathbackwards0009_RL.o)
 .debug_abbrev  0x0000a50f       0xca ../data/Sprites/SpongeBob//libSpongeBob_Sprs.a(deathbackwards0011_RL.o)
 .debug_abbrev  0x0000a5d9       0xca ../data/Sprites/SpongeBob//libSpongeBob_Sprs.a(deathbackwards0013_RL.o)
 .debug_abbrev  0x0000a6a3       0xca ../data/Sprites/SpongeBob//libSpongeBob_Sprs.a(deathbackwards0015_RL.o)
 .debug_abbrev  0x0000a76d       0xca ../data/Sprites/SpongeBob//libSpongeBob_Sprs.a(deathdry0001_RL.o)
 .debug_abbrev  0x0000a837       0xca ../data/Sprites/SpongeBob//libSpongeBob_Sprs.a(deathdry0003_RL.o)
 .debug_abbrev  0x0000a901       0xca ../data/Sprites/SpongeBob//libSpongeBob_Sprs.a(deathdry0005_RL.o)
 .debug_abbrev  0x0000a9cb       0xca ../data/Sprites/SpongeBob//libSpongeBob_Sprs.a(deathdry0007_RL.o)
 .debug_abbrev  0x0000aa95       0xca ../data/Sprites/SpongeBob//libSpongeBob_Sprs.a(deathdry0009_RL.o)
 .debug_abbrev  0x0000ab5f       0xca ../data/Sprites/SpongeBob//libSpongeBob_Sprs.a(deathdry0011_RL.o)
 .debug_abbrev  0x0000ac29       0xca ../data/Sprites/SpongeBob//libSpongeBob_Sprs.a(deathdry0013_RL.o)
 .debug_abbrev  0x0000acf3       0xca ../data/Sprites/SpongeBob//libSpongeBob_Sprs.a(deathdry0015_RL.o)
 .debug_abbrev  0x0000adbd       0xca ../data/Sprites/SpongeBob//libSpongeBob_Sprs.a(deathforwards0001_RL.o)
 .debug_abbrev  0x0000ae87       0xca ../data/Sprites/SpongeBob//libSpongeBob_Sprs.a(deathforwards0003_RL.o)
 .debug_abbrev  0x0000af51       0xca ../data/Sprites/SpongeBob//libSpongeBob_Sprs.a(deathforwards0005_RL.o)
 .debug_abbrev  0x0000b01b       0xca ../data/Sprites/SpongeBob//libSpongeBob_Sprs.a(deathforwards0007_RL.o)
 .debug_abbrev  0x0000b0e5       0xca ../data/Sprites/SpongeBob//libSpongeBob_Sprs.a(deathforwards0009_RL.o)
 .debug_abbrev  0x0000b1af       0xca ../data/Sprites/SpongeBob//libSpongeBob_Sprs.a(deathforwards0011_RL.o)
 .debug_abbrev  0x0000b279       0xca ../data/Sprites/SpongeBob//libSpongeBob_Sprs.a(deathforwards0013_RL.o)
 .debug_abbrev  0x0000b343       0xca ../data/Sprites/SpongeBob//libSpongeBob_Sprs.a(deathforwards0015_RL.o)
 .debug_abbrev  0x0000b40d       0xca ../data/Sprites/SpongeBob//libSpongeBob_Sprs.a(deathspin0001_RL.o)
 .debug_abbrev  0x0000b4d7       0xca ../data/Sprites/SpongeBob//libSpongeBob_Sprs.a(deathspin0003_RL.o)
 .debug_abbrev  0x0000b5a1       0xca ../data/Sprites/SpongeBob//libSpongeBob_Sprs.a(deathspin0005_RL.o)
 .debug_abbrev  0x0000b66b       0xca ../data/Sprites/SpongeBob//libSpongeBob_Sprs.a(deathspin0007_RL.o)
 .debug_abbrev  0x0000b735       0xca ../data/Sprites/SpongeBob//libSpongeBob_Sprs.a(deathspin0009_RL.o)
 .debug_abbrev  0x0000b7ff       0xca ../data/Sprites/SpongeBob//libSpongeBob_Sprs.a(deathspin0011_RL.o)
 .debug_abbrev  0x0000b8c9       0xca ../data/Sprites/SpongeBob//libSpongeBob_Sprs.a(deathspin0013_RL.o)
 .debug_abbrev  0x0000b993       0xca ../data/Sprites/SpongeBob//libSpongeBob_Sprs.a(deathspin0015_RL.o)
 .debug_abbrev  0x0000ba5d       0xca ../data/Sprites/SpongeBob//libSpongeBob_Sprs.a(deathsquash0001_RL.o)
 .debug_abbrev  0x0000bb27       0xca ../data/Sprites/SpongeBob//libSpongeBob_Sprs.a(deathsquash0003_RL.o)
 .debug_abbrev  0x0000bbf1       0xca ../data/Sprites/SpongeBob//libSpongeBob_Sprs.a(deathsquash0005_RL.o)
 .debug_abbrev  0x0000bcbb       0xca ../data/Sprites/SpongeBob//libSpongeBob_Sprs.a(deathsquash0007_RL.o)
 .debug_abbrev  0x0000bd85       0xca ../data/Sprites/SpongeBob//libSpongeBob_Sprs.a(deathsquash0009_RL.o)
 .debug_abbrev  0x0000be4f       0xca ../data/Sprites/SpongeBob//libSpongeBob_Sprs.a(deathsquash0011_RL.o)
 .debug_abbrev  0x0000bf19       0xca ../data/Sprites/SpongeBob//libSpongeBob_Sprs.a(deathsquash0013_RL.o)
 .debug_abbrev  0x0000bfe3       0xca ../data/Sprites/SpongeBob//libSpongeBob_Sprs.a(deathsquash0015_RL.o)
 .debug_abbrev  0x0000c0ad       0xca ../data/Sprites/SpongeBob//libSpongeBob_Sprs.a(deathtar0001_RL.o)
 .debug_abbrev  0x0000c177       0xca ../data/Sprites/SpongeBob//libSpongeBob_Sprs.a(deathtar0003_RL.o)
 .debug_abbrev  0x0000c241       0xca ../data/Sprites/SpongeBob//libSpongeBob_Sprs.a(deathtar0005_RL.o)
 .debug_abbrev  0x0000c30b       0xca ../data/Sprites/SpongeBob//libSpongeBob_Sprs.a(deathtar0007_RL.o)
 .debug_abbrev  0x0000c3d5       0xca ../data/Sprites/SpongeBob//libSpongeBob_Sprs.a(deathtarstart0001_RL.o)
 .debug_abbrev  0x0000c49f       0xca ../data/Sprites/SpongeBob//libSpongeBob_Sprs.a(deathtarstart0003_RL.o)
 .debug_abbrev  0x0000c569       0xca ../data/Sprites/SpongeBob//libSpongeBob_Sprs.a(deathtarstart0005_RL.o)
 .debug_abbrev  0x0000c633       0xca ../data/Sprites/SpongeBob//libSpongeBob_Sprs.a(deathtarstart0007_RL.o)
 .debug_abbrev  0x0000c6fd       0xca ../data/Sprites/SpongeBob//libSpongeBob_Sprs.a(electricshock0001_RL.o)
 .debug_abbrev  0x0000c7c7       0xca ../data/Sprites/SpongeBob//libSpongeBob_Sprs.a(electricshock0003_RL.o)
 .debug_abbrev  0x0000c891       0xca ../data/Sprites/SpongeBob//libSpongeBob_Sprs.a(electricshock0005_RL.o)
 .debug_abbrev  0x0000c95b       0xca ../data/Sprites/SpongeBob//libSpongeBob_Sprs.a(electricshock0007_RL.o)
 .debug_abbrev  0x0000ca25       0xca ../data/Sprites/SpongeBob//libSpongeBob_Sprs.a(electricshockend0000_RL.o)
 .debug_abbrev  0x0000caef       0xca ../data/Sprites/SpongeBob//libSpongeBob_Sprs.a(electricshockend0001_RL.o)
 .debug_abbrev  0x0000cbb9       0xca ../data/Sprites/SpongeBob//libSpongeBob_Sprs.a(electricshockstart0000_RL.o)
 .debug_abbrev  0x0000cc83       0xca ../data/Sprites/SpongeBob//libSpongeBob_Sprs.a(electricshockstart0001_RL.o)
 .debug_abbrev  0x0000cd4d       0xca ../data/Sprites/SpongeBob//libSpongeBob_Sprs.a(faceback0001_RL.o)
 .debug_abbrev  0x0000ce17       0xca ../data/Sprites/SpongeBob//libSpongeBob_Sprs.a(faceback0003_RL.o)
 .debug_abbrev  0x0000cee1       0xca ../data/Sprites/SpongeBob//libSpongeBob_Sprs.a(faceback0005_RL.o)
 .debug_abbrev  0x0000cfab       0xca ../data/Sprites/SpongeBob//libSpongeBob_Sprs.a(faceback0007_RL.o)
 .debug_abbrev  0x0000d075       0xca ../data/Sprites/SpongeBob//libSpongeBob_Sprs.a(facefront0000_RL.o)
 .debug_abbrev  0x0000d13f       0xca ../data/Sprites/SpongeBob//libSpongeBob_Sprs.a(facefront0001_RL.o)
 .debug_abbrev  0x0000d209       0xca ../data/Sprites/SpongeBob//libSpongeBob_Sprs.a(fall0001_RL.o)
 .debug_abbrev  0x0000d2d3       0xca ../data/Sprites/SpongeBob//libSpongeBob_Sprs.a(fall0003_RL.o)
 .debug_abbrev  0x0000d39d       0xca ../data/Sprites/SpongeBob//libSpongeBob_Sprs.a(fall0005_RL.o)
 .debug_abbrev  0x0000d467       0xca ../data/Sprites/SpongeBob//libSpongeBob_Sprs.a(fireend0000_RL.o)
 .debug_abbrev  0x0000d531       0xca ../data/Sprites/SpongeBob//libSpongeBob_Sprs.a(fireend0001_RL.o)
 .debug_abbrev  0x0000d5fb       0xca ../data/Sprites/SpongeBob//libSpongeBob_Sprs.a(firestart0000_RL.o)
 .debug_abbrev  0x0000d6c5       0xca ../data/Sprites/SpongeBob//libSpongeBob_Sprs.a(firestart0001_RL.o)
 .debug_abbrev  0x0000d78f       0xca ../data/Sprites/SpongeBob//libSpongeBob_Sprs.a(firestart0002_RL.o)
 .debug_abbrev  0x0000d859       0xca ../data/Sprites/SpongeBob//libSpongeBob_Sprs.a(firestart0003_RL.o)
 .debug_abbrev  0x0000d923       0xca ../data/Sprites/SpongeBob//libSpongeBob_Sprs.a(getup0001_RL.o)
 .debug_abbrev  0x0000d9ed       0xca ../data/Sprites/SpongeBob//libSpongeBob_Sprs.a(getup0003_RL.o)
 .debug_abbrev  0x0000dab7       0xca ../data/Sprites/SpongeBob//libSpongeBob_Sprs.a(getup0005_RL.o)
 .debug_abbrev  0x0000db81       0xca ../data/Sprites/SpongeBob//libSpongeBob_Sprs.a(getup0007_RL.o)
 .debug_abbrev  0x0000dc4b       0xca ../data/Sprites/SpongeBob//libSpongeBob_Sprs.a(getuprun0001_RL.o)
 .debug_abbrev  0x0000dd15       0xca ../data/Sprites/SpongeBob//libSpongeBob_Sprs.a(getuprun0003_RL.o)
 .debug_abbrev  0x0000dddf       0xca ../data/Sprites/SpongeBob//libSpongeBob_Sprs.a(getuprun0005_RL.o)
 .debug_abbrev  0x0000dea9       0xca ../data/Sprites/SpongeBob//libSpongeBob_Sprs.a(getuprun0007_RL.o)
 .debug_abbrev  0x0000df73       0xca ../data/Sprites/SpongeBob//libSpongeBob_Sprs.a(hitground0001_RL.o)
 .debug_abbrev  0x0000e03d       0xca ../data/Sprites/SpongeBob//libSpongeBob_Sprs.a(hitground0003_RL.o)
 .debug_abbrev  0x0000e107       0xca ../data/Sprites/SpongeBob//libSpongeBob_Sprs.a(hitground0005_RL.o)
 .debug_abbrev  0x0000e1d1       0xca ../data/Sprites/SpongeBob//libSpongeBob_Sprs.a(hitground0007_RL.o)
 .debug_abbrev  0x0000e29b       0xca ../data/Sprites/SpongeBob//libSpongeBob_Sprs.a(hover0001_RL.o)
 .debug_abbrev  0x0000e365       0xca ../data/Sprites/SpongeBob//libSpongeBob_Sprs.a(hover0003_RL.o)
 .debug_abbrev  0x0000e42f       0xca ../data/Sprites/SpongeBob//libSpongeBob_Sprs.a(hover0005_RL.o)
 .debug_abbrev  0x0000e4f9       0xca ../data/Sprites/SpongeBob//libSpongeBob_Sprs.a(hover0007_RL.o)
 .debug_abbrev  0x0000e5c3       0xca ../data/Sprites/SpongeBob//libSpongeBob_Sprs.a(hoverend0000_RL.o)
 .debug_abbrev  0x0000e68d       0xca ../data/Sprites/SpongeBob//libSpongeBob_Sprs.a(hoverend0001_RL.o)
 .debug_abbrev  0x0000e757       0xca ../data/Sprites/SpongeBob//libSpongeBob_Sprs.a(hoverstart0000_RL.o)
 .debug_abbrev  0x0000e821       0xca ../data/Sprites/SpongeBob//libSpongeBob_Sprs.a(hoverstart0001_RL.o)
 .debug_abbrev  0x0000e8eb       0xca ../data/Sprites/SpongeBob//libSpongeBob_Sprs.a(idlebouncehead0001_RL.o)
 .debug_abbrev  0x0000e9b5       0xca ../data/Sprites/SpongeBob//libSpongeBob_Sprs.a(idlebouncehead0003_RL.o)
 .debug_abbrev  0x0000ea7f       0xca ../data/Sprites/SpongeBob//libSpongeBob_Sprs.a(idlebouncehead0005_RL.o)
 .debug_abbrev  0x0000eb49       0xca ../data/Sprites/SpongeBob//libSpongeBob_Sprs.a(idlebouncehead0007_RL.o)
 .debug_abbrev  0x0000ec13       0xca ../data/Sprites/SpongeBob//libSpongeBob_Sprs.a(idlebouncehead0009_RL.o)
 .debug_abbrev  0x0000ecdd       0xca ../data/Sprites/SpongeBob//libSpongeBob_Sprs.a(idlebouncehead0011_RL.o)
 .debug_abbrev  0x0000eda7       0xca ../data/Sprites/SpongeBob//libSpongeBob_Sprs.a(idlebouncehead0013_RL.o)
 .debug_abbrev  0x0000ee71       0xca ../data/Sprites/SpongeBob//libSpongeBob_Sprs.a(idlebouncehead0015_RL.o)
 .debug_abbrev  0x0000ef3b       0xca ../data/Sprites/SpongeBob//libSpongeBob_Sprs.a(idlebounceheadend0001_RL.o)
 .debug_abbrev  0x0000f005       0xca ../data/Sprites/SpongeBob//libSpongeBob_Sprs.a(idlebounceheadend0003_RL.o)
 .debug_abbrev  0x0000f0cf       0xca ../data/Sprites/SpongeBob//libSpongeBob_Sprs.a(idlebounceheadend0005_RL.o)
 .debug_abbrev  0x0000f199       0xca ../data/Sprites/SpongeBob//libSpongeBob_Sprs.a(idlebounceheadend0007_RL.o)
 .debug_abbrev  0x0000f263       0xca ../data/Sprites/SpongeBob//libSpongeBob_Sprs.a(idlebounceheadstart0001_RL.o)
 .debug_abbrev  0x0000f32d       0xca ../data/Sprites/SpongeBob//libSpongeBob_Sprs.a(idlebounceheadstart0003_RL.o)
 .debug_abbrev  0x0000f3f7       0xca ../data/Sprites/SpongeBob//libSpongeBob_Sprs.a(idlebounceheadstart0005_RL.o)
 .debug_abbrev  0x0000f4c1       0xca ../data/Sprites/SpongeBob//libSpongeBob_Sprs.a(idlebounceheadstart0007_RL.o)
 .debug_abbrev  0x0000f58b       0xca ../data/Sprites/SpongeBob//libSpongeBob_Sprs.a(idlebreathe0000_RL.o)
 .debug_abbrev  0x0000f655       0xca ../data/Sprites/SpongeBob//libSpongeBob_Sprs.a(idlebreathe0001_RL.o)
 .debug_abbrev  0x0000f71f       0xca ../data/Sprites/SpongeBob//libSpongeBob_Sprs.a(idlebreathe0002_RL.o)
 .debug_abbrev  0x0000f7e9       0xca ../data/Sprites/SpongeBob//libSpongeBob_Sprs.a(idlebreathe0003_RL.o)
 .debug_abbrev  0x0000f8b3       0xca ../data/Sprites/SpongeBob//libSpongeBob_Sprs.a(idlefaces0001_RL.o)
 .debug_abbrev  0x0000f97d       0xca ../data/Sprites/SpongeBob//libSpongeBob_Sprs.a(idlefaces0003_RL.o)
 .debug_abbrev  0x0000fa47       0xca ../data/Sprites/SpongeBob//libSpongeBob_Sprs.a(idlefaces0005_RL.o)
 .debug_abbrev  0x0000fb11       0xca ../data/Sprites/SpongeBob//libSpongeBob_Sprs.a(idlefaces0007_RL.o)
 .debug_abbrev  0x0000fbdb       0xca ../data/Sprites/SpongeBob//libSpongeBob_Sprs.a(idlefacesend0001_RL.o)
 .debug_abbrev  0x0000fca5       0xca ../data/Sprites/SpongeBob//libSpongeBob_Sprs.a(idlefacesend0003_RL.o)
 .debug_abbrev  0x0000fd6f       0xca ../data/Sprites/SpongeBob//libSpongeBob_Sprs.a(idlefacesend0005_RL.o)
 .debug_abbrev  0x0000fe39       0xca ../data/Sprites/SpongeBob//libSpongeBob_Sprs.a(idlefacesend0007_RL.o)
 .debug_abbrev  0x0000ff03       0xca ../data/Sprites/SpongeBob//libSpongeBob_Sprs.a(idlefacesstart0000_RL.o)
 .debug_abbrev  0x0000ffcd       0xca ../data/Sprites/SpongeBob//libSpongeBob_Sprs.a(idlefacesstart0001_RL.o)
 .debug_abbrev  0x00010097       0xca ../data/Sprites/SpongeBob//libSpongeBob_Sprs.a(idlehoola0001_RL.o)
 .debug_abbrev  0x00010161       0xca ../data/Sprites/SpongeBob//libSpongeBob_Sprs.a(idlehoola0003_RL.o)
 .debug_abbrev  0x0001022b       0xca ../data/Sprites/SpongeBob//libSpongeBob_Sprs.a(idlehoola0005_RL.o)
 .debug_abbrev  0x000102f5       0xca ../data/Sprites/SpongeBob//libSpongeBob_Sprs.a(idlehoola0007_RL.o)
 .debug_abbrev  0x000103bf       0xca ../data/Sprites/SpongeBob//libSpongeBob_Sprs.a(idlehoola0009_RL.o)
 .debug_abbrev  0x00010489       0xca ../data/Sprites/SpongeBob//libSpongeBob_Sprs.a(idlehoola0011_RL.o)
 .debug_abbrev  0x00010553       0xca ../data/Sprites/SpongeBob//libSpongeBob_Sprs.a(idlehoola0013_RL.o)
 .debug_abbrev  0x0001061d       0xca ../data/Sprites/SpongeBob//libSpongeBob_Sprs.a(idlehoola0015_RL.o)
 .debug_abbrev  0x000106e7       0xca ../data/Sprites/SpongeBob//libSpongeBob_Sprs.a(idlekarate0001_RL.o)
 .debug_abbrev  0x000107b1       0xca ../data/Sprites/SpongeBob//libSpongeBob_Sprs.a(idlekarate0003_RL.o)
 .debug_abbrev  0x0001087b       0xca ../data/Sprites/SpongeBob//libSpongeBob_Sprs.a(idlekarate0005_RL.o)
 .debug_abbrev  0x00010945       0xca ../data/Sprites/SpongeBob//libSpongeBob_Sprs.a(idlekarate0007_RL.o)
 .debug_abbrev  0x00010a0f       0xca ../data/Sprites/SpongeBob//libSpongeBob_Sprs.a(idlekarate0009_RL.o)
 .debug_abbrev  0x00010ad9       0xca ../data/Sprites/SpongeBob//libSpongeBob_Sprs.a(idlekarate0011_RL.o)
 .debug_abbrev  0x00010ba3       0xca ../data/Sprites/SpongeBob//libSpongeBob_Sprs.a(idlekarate0013_RL.o)
 .debug_abbrev  0x00010c6d       0xca ../data/Sprites/SpongeBob//libSpongeBob_Sprs.a(idlekarate0015_RL.o)
 .debug_abbrev  0x00010d37       0xca ../data/Sprites/SpongeBob//libSpongeBob_Sprs.a(idlesleep0001_RL.o)
 .debug_abbrev  0x00010e01       0xca ../data/Sprites/SpongeBob//libSpongeBob_Sprs.a(idlesleep0003_RL.o)
 .debug_abbrev  0x00010ecb       0xca ../data/Sprites/SpongeBob//libSpongeBob_Sprs.a(idlesleep0005_RL.o)
 .debug_abbrev  0x00010f95       0xca ../data/Sprites/SpongeBob//libSpongeBob_Sprs.a(idlesleep0007_RL.o)
 .debug_abbrev  0x0001105f       0xca ../data/Sprites/SpongeBob//libSpongeBob_Sprs.a(idlesleepend0001_RL.o)
 .debug_abbrev  0x00011129       0xca ../data/Sprites/SpongeBob//libSpongeBob_Sprs.a(idlesleepend0003_RL.o)
 .debug_abbrev  0x000111f3       0xca ../data/Sprites/SpongeBob//libSpongeBob_Sprs.a(idlesleepstart0001_RL.o)
 .debug_abbrev  0x000112bd       0xca ../data/Sprites/SpongeBob//libSpongeBob_Sprs.a(idlesleepstart0003_RL.o)
 .debug_abbrev  0x00011387       0xca ../data/Sprites/SpongeBob//libSpongeBob_Sprs.a(idlesplitpants0001_RL.o)
 .debug_abbrev  0x00011451       0xca ../data/Sprites/SpongeBob//libSpongeBob_Sprs.a(idlesplitpants0003_RL.o)
 .debug_abbrev  0x0001151b       0xca ../data/Sprites/SpongeBob//libSpongeBob_Sprs.a(idlesplitpants0005_RL.o)
 .debug_abbrev  0x000115e5       0xca ../data/Sprites/SpongeBob//libSpongeBob_Sprs.a(idlesplitpants0007_RL.o)
 .debug_abbrev  0x000116af       0xca ../data/Sprites/SpongeBob//libSpongeBob_Sprs.a(idlesplitpants0009_RL.o)
 .debug_abbrev  0x00011779       0xca ../data/Sprites/SpongeBob//libSpongeBob_Sprs.a(idlesplitpants0011_RL.o)
 .debug_abbrev  0x00011843       0xca ../data/Sprites/SpongeBob//libSpongeBob_Sprs.a(idlesplitpants0013_RL.o)
 .debug_abbrev  0x0001190d       0xca ../data/Sprites/SpongeBob//libSpongeBob_Sprs.a(idlesplitpants0015_RL.o)
 .debug_abbrev  0x000119d7       0xca ../data/Sprites/SpongeBob//libSpongeBob_Sprs.a(idlesplitpants0017_RL.o)
 .debug_abbrev  0x00011aa1       0xca ../data/Sprites/SpongeBob//libSpongeBob_Sprs.a(idlesplitpants0019_RL.o)
 .debug_abbrev  0x00011b6b       0xca ../data/Sprites/SpongeBob//libSpongeBob_Sprs.a(idlesplitpants0021_RL.o)
 .debug_abbrev  0x00011c35       0xca ../data/Sprites/SpongeBob//libSpongeBob_Sprs.a(idlesplitpants0023_RL.o)
 .debug_abbrev  0x00011cff       0xca ../data/Sprites/SpongeBob//libSpongeBob_Sprs.a(idleweapon0001_RL.o)
 .debug_abbrev  0x00011dc9       0xca ../data/Sprites/SpongeBob//libSpongeBob_Sprs.a(idleweapon0003_RL.o)
 .debug_abbrev  0x00011e93       0xca ../data/Sprites/SpongeBob//libSpongeBob_Sprs.a(idleweapon0005_RL.o)
 .debug_abbrev  0x00011f5d       0xca ../data/Sprites/SpongeBob//libSpongeBob_Sprs.a(idleweapon0007_RL.o)
 .debug_abbrev  0x00012027       0xca ../data/Sprites/SpongeBob//libSpongeBob_Sprs.a(idleweapon0009_RL.o)
 .debug_abbrev  0x000120f1       0xca ../data/Sprites/SpongeBob//libSpongeBob_Sprs.a(idleweapon0011_RL.o)
 .debug_abbrev  0x000121bb       0xca ../data/Sprites/SpongeBob//libSpongeBob_Sprs.a(idleweapon0013_RL.o)
 .debug_abbrev  0x00012285       0xca ../data/Sprites/SpongeBob//libSpongeBob_Sprs.a(idleweapon0015_RL.o)
 .debug_abbrev  0x0001234f       0xca ../data/Sprites/SpongeBob//libSpongeBob_Sprs.a(idlewigglearms0001_RL.o)
 .debug_abbrev  0x00012419       0xca ../data/Sprites/SpongeBob//libSpongeBob_Sprs.a(idlewigglearms0003_RL.o)
 .debug_abbrev  0x000124e3       0xca ../data/Sprites/SpongeBob//libSpongeBob_Sprs.a(idlewigglearms0005_RL.o)
 .debug_abbrev  0x000125ad       0xca ../data/Sprites/SpongeBob//libSpongeBob_Sprs.a(idlewigglearms0007_RL.o)
 .debug_abbrev  0x00012677       0xca ../data/Sprites/SpongeBob//libSpongeBob_Sprs.a(idlewigglearms0009_RL.o)
 .debug_abbrev  0x00012741       0xca ../data/Sprites/SpongeBob//libSpongeBob_Sprs.a(idlewigglearms0011_RL.o)
 .debug_abbrev  0x0001280b       0xca ../data/Sprites/SpongeBob//libSpongeBob_Sprs.a(idlewigglearms0013_RL.o)
 .debug_abbrev  0x000128d5       0xca ../data/Sprites/SpongeBob//libSpongeBob_Sprs.a(idlewigglearms0015_RL.o)
 .debug_abbrev  0x0001299f       0xca ../data/Sprites/SpongeBob//libSpongeBob_Sprs.a(idlewind0001_RL.o)
 .debug_abbrev  0x00012a69       0xca ../data/Sprites/SpongeBob//libSpongeBob_Sprs.a(idlewind0003_RL.o)
 .debug_abbrev  0x00012b33       0xca ../data/Sprites/SpongeBob//libSpongeBob_Sprs.a(idlewind0005_RL.o)
 .debug_abbrev  0x00012bfd       0xca ../data/Sprites/SpongeBob//libSpongeBob_Sprs.a(idlewind0007_RL.o)
 .debug_abbrev  0x00012cc7       0xca ../data/Sprites/SpongeBob//libSpongeBob_Sprs.a(idlewind0009_RL.o)
 .debug_abbrev  0x00012d91       0xca ../data/Sprites/SpongeBob//libSpongeBob_Sprs.a(idlewind0011_RL.o)
 .debug_abbrev  0x00012e5b       0xca ../data/Sprites/SpongeBob//libSpongeBob_Sprs.a(idlewind0013_RL.o)
 .debug_abbrev  0x00012f25       0xca ../data/Sprites/SpongeBob//libSpongeBob_Sprs.a(idlewind0015_RL.o)
 .debug_abbrev  0x00012fef       0xca ../data/Sprites/SpongeBob//libSpongeBob_Sprs.a(jumpend0001_RL.o)
 .debug_abbrev  0x000130b9       0xca ../data/Sprites/SpongeBob//libSpongeBob_Sprs.a(jumpend0003_RL.o)
 .debug_abbrev  0x00013183       0xca ../data/Sprites/SpongeBob//libSpongeBob_Sprs.a(karate0001_RL.o)
 .debug_abbrev  0x0001324d       0xca ../data/Sprites/SpongeBob//libSpongeBob_Sprs.a(karate0003_RL.o)
 .debug_abbrev  0x00013317       0xca ../data/Sprites/SpongeBob//libSpongeBob_Sprs.a(karate0005_RL.o)
 .debug_abbrev  0x000133e1       0xca ../data/Sprites/SpongeBob//libSpongeBob_Sprs.a(karate0007_RL.o)
 .debug_abbrev  0x000134ab       0xca ../data/Sprites/SpongeBob//libSpongeBob_Sprs.a(karate0009_RL.o)
 .debug_abbrev  0x00013575       0xca ../data/Sprites/SpongeBob//libSpongeBob_Sprs.a(karate0011_RL.o)
 .debug_abbrev  0x0001363f       0xca ../data/Sprites/SpongeBob//libSpongeBob_Sprs.a(karate0013_RL.o)
 .debug_abbrev  0x00013709       0xca ../data/Sprites/SpongeBob//libSpongeBob_Sprs.a(karate0015_RL.o)
 .debug_abbrev  0x000137d3       0xca ../data/Sprites/SpongeBob//libSpongeBob_Sprs.a(netfirelob0001_RL.o)
 .debug_abbrev  0x0001389d       0xca ../data/Sprites/SpongeBob//libSpongeBob_Sprs.a(netfirelob0003_RL.o)
 .debug_abbrev  0x00013967       0xca ../data/Sprites/SpongeBob//libSpongeBob_Sprs.a(netfirelob0005_RL.o)
 .debug_abbrev  0x00013a31       0xca ../data/Sprites/SpongeBob//libSpongeBob_Sprs.a(netfirelob0007_RL.o)
 .debug_abbrev  0x00013afb       0xca ../data/Sprites/SpongeBob//libSpongeBob_Sprs.a(netfirelob0009_RL.o)
 .debug_abbrev  0x00013bc5       0xca ../data/Sprites/SpongeBob//libSpongeBob_Sprs.a(netfirelob0011_RL.o)
 .debug_abbrev  0x00013c8f       0xca ../data/Sprites/SpongeBob//libSpongeBob_Sprs.a(netfirelob0013_RL.o)
 .debug_abbrev  0x00013d59       0xca ../data/Sprites/SpongeBob//libSpongeBob_Sprs.a(netfirelob0015_RL.o)
 .debug_abbrev  0x00013e23       0xca ../data/Sprites/SpongeBob//libSpongeBob_Sprs.a(netswipe0001_RL.o)
 .debug_abbrev  0x00013eed       0xca ../data/Sprites/SpongeBob//libSpongeBob_Sprs.a(netswipe0003_RL.o)
 .debug_abbrev  0x00013fb7       0xca ../data/Sprites/SpongeBob//libSpongeBob_Sprs.a(netswipe0005_RL.o)
 .debug_abbrev  0x00014081       0xca ../data/Sprites/SpongeBob//libSpongeBob_Sprs.a(netswipe0007_RL.o)
 .debug_abbrev  0x0001414b       0xca ../data/Sprites/SpongeBob//libSpongeBob_Sprs.a(netswipe0009_RL.o)
 .debug_abbrev  0x00014215       0xca ../data/Sprites/SpongeBob//libSpongeBob_Sprs.a(netswipe0011_RL.o)
 .debug_abbrev  0x000142df       0xca ../data/Sprites/SpongeBob//libSpongeBob_Sprs.a(netswipe0013_RL.o)
 .debug_abbrev  0x000143a9       0xca ../data/Sprites/SpongeBob//libSpongeBob_Sprs.a(netswipe0015_RL.o)
 .debug_abbrev  0x00014473       0xca ../data/Sprites/SpongeBob//libSpongeBob_Sprs.a(run0000_RL.o)
 .debug_abbrev  0x0001453d       0xca ../data/Sprites/SpongeBob//libSpongeBob_Sprs.a(run0001_RL.o)
 .debug_abbrev  0x00014607       0xca ../data/Sprites/SpongeBob//libSpongeBob_Sprs.a(run0002_RL.o)
 .debug_abbrev  0x000146d1       0xca ../data/Sprites/SpongeBob//libSpongeBob_Sprs.a(run0003_RL.o)
 .debug_abbrev  0x0001479b       0xca ../data/Sprites/SpongeBob//libSpongeBob_Sprs.a(run0004_RL.o)
 .debug_abbrev  0x00014865       0xca ../data/Sprites/SpongeBob//libSpongeBob_Sprs.a(run0005_RL.o)
 .debug_abbrev  0x0001492f       0xca ../data/Sprites/SpongeBob//libSpongeBob_Sprs.a(run0006_RL.o)
 .debug_abbrev  0x000149f9       0xca ../data/Sprites/SpongeBob//libSpongeBob_Sprs.a(run0007_RL.o)
 .debug_abbrev  0x00014ac3       0xca ../data/Sprites/SpongeBob//libSpongeBob_Sprs.a(run0008_RL.o)
 .debug_abbrev  0x00014b8d       0xca ../data/Sprites/SpongeBob//libSpongeBob_Sprs.a(run0009_RL.o)
 .debug_abbrev  0x00014c57       0xca ../data/Sprites/SpongeBob//libSpongeBob_Sprs.a(run0010_RL.o)
 .debug_abbrev  0x00014d21       0xca ../data/Sprites/SpongeBob//libSpongeBob_Sprs.a(run0011_RL.o)
 .debug_abbrev  0x00014deb       0xca ../data/Sprites/SpongeBob//libSpongeBob_Sprs.a(run0012_RL.o)
 .debug_abbrev  0x00014eb5       0xca ../data/Sprites/SpongeBob//libSpongeBob_Sprs.a(run0013_RL.o)
 .debug_abbrev  0x00014f7f       0xca ../data/Sprites/SpongeBob//libSpongeBob_Sprs.a(run0014_RL.o)
 .debug_abbrev  0x00015049       0xca ../data/Sprites/SpongeBob//libSpongeBob_Sprs.a(run0015_RL.o)
 .debug_abbrev  0x00015113       0xca ../data/Sprites/SpongeBob//libSpongeBob_Sprs.a(soakup0001_RL.o)
 .debug_abbrev  0x000151dd       0xca ../data/Sprites/SpongeBob//libSpongeBob_Sprs.a(soakup0003_RL.o)
 .debug_abbrev  0x000152a7       0xca ../data/Sprites/SpongeBob//libSpongeBob_Sprs.a(soakup0005_RL.o)
 .debug_abbrev  0x00015371       0xca ../data/Sprites/SpongeBob//libSpongeBob_Sprs.a(soakup0007_RL.o)
 .debug_abbrev  0x0001543b       0xca ../data/Sprites/SpongeBob//libSpongeBob_Sprs.a(teeterfront0001_RL.o)
 .debug_abbrev  0x00015505       0xca ../data/Sprites/SpongeBob//libSpongeBob_Sprs.a(teeterfront0003_RL.o)
 .debug_abbrev  0x000155cf       0xca ../data/Sprites/SpongeBob//libSpongeBob_Sprs.a(teeterfront0005_RL.o)
 .debug_abbrev  0x00015699       0xca ../data/Sprites/SpongeBob//libSpongeBob_Sprs.a(teeterfront0007_RL.o)
 .debug_abbrev  0x00015763       0xca ../data/Sprites/SpongeBob//libSpongeBob_Sprs.a(teeterfront0009_RL.o)
 .debug_abbrev  0x0001582d       0xca ../data/Sprites/SpongeBob//libSpongeBob_Sprs.a(teeterfront0011_RL.o)
 .debug_abbrev  0x000158f7       0xca ../data/Sprites/SpongeBob//libSpongeBob_Sprs.a(teeterfront0013_RL.o)
 .debug_abbrev  0x000159c1       0xca ../data/Sprites/SpongeBob//libSpongeBob_Sprs.a(teeterfront0015_RL.o)
 .debug_abbrev  0x00015a8b       0xca ../data/Sprites/SpongeBob//libSpongeBob_Sprs.a(walkforward0001_RL.o)
 .debug_abbrev  0x00015b55       0xca ../data/Sprites/SpongeBob//libSpongeBob_Sprs.a(walkforward0003_RL.o)
 .debug_abbrev  0x00015c1f       0xca ../data/Sprites/SpongeBob//libSpongeBob_Sprs.a(walkforward0005_RL.o)
 .debug_abbrev  0x00015ce9       0xca ../data/Sprites/SpongeBob//libSpongeBob_Sprs.a(walkforward0007_RL.o)
 .debug_abbrev  0x00015db3       0xca ../data/Sprites/SpongeBob//libSpongeBob_Sprs.a(walkforward0009_RL.o)
 .debug_abbrev  0x00015e7d       0xca ../data/Sprites/SpongeBob//libSpongeBob_Sprs.a(walkforward0011_RL.o)
 .debug_abbrev  0x00015f47       0xca ../data/Sprites/SpongeBob//libSpongeBob_Sprs.a(walkforward0013_RL.o)
 .debug_abbrev  0x00016011       0xca ../data/Sprites/SpongeBob//libSpongeBob_Sprs.a(walkforward0015_RL.o)
 .debug_abbrev  0x000160db       0xca ../data/Sprites/NPC//libNPC_Sprs.a(patrick0001.o)
 .debug_abbrev  0x000161a5       0xca ../data/Sprites/Platforms//libPlatforms_Sprs.a(platform0001.o)
 .debug_abbrev  0x0001626f       0xca ../data/Sprites/Monsters//libMonsters_Sprs.a(clamsidesnap0001.o)
 .debug_abbrev  0x00016339       0xca ../data/Sprites/Monsters//libMonsters_Sprs.a(clamsidesnap0003.o)
 .debug_abbrev  0x00016403       0xca ../data/Sprites/Monsters//libMonsters_Sprs.a(clamsidesnap0005.o)
 .debug_abbrev  0x000164cd       0xca ../data/Sprites/Monsters//libMonsters_Sprs.a(clamsidesnap0007.o)
 .debug_abbrev  0x00016597       0xca ../data/Sprites/Monsters//libMonsters_Sprs.a(clamsnapup0001.o)
 .debug_abbrev  0x00016661       0xca ../data/Sprites/Monsters//libMonsters_Sprs.a(clamsnapup0003.o)
 .debug_abbrev  0x0001672b       0xca ../data/Sprites/Monsters//libMonsters_Sprs.a(clamsnapup0005.o)
 .debug_abbrev  0x000167f5       0x72 C:\PROGRA~1\Cygnus\thumbelf-000512\H-i686-cygwin32\bin/../lib/gcc-lib/thumb-elf/2.9-arm-000512/../../../../thumb-elf/lib/libg.a(strlen.o)

.debug_line     0x00000000     0xb8bb
 *(.debug_line)
 .debug_line    0x00000000      0x64f Main.o
 .debug_line    0x0000064f      0x864 Game.o
 .debug_line    0x00000eb3      0xf62 Titles.o
 .debug_line    0x00001e15      0x4e0 Random.o
 .debug_line    0x000022f5      0x50d StartUp.o
 .debug_line    0x00002802     0x2ab3 Scroll_Engine.o
 .debug_line    0x000052b5      0x867 SprEng_Control.o
 .debug_line    0x00005b1c      0x4dd SprEng_Animate.o
 .debug_line    0x00005ff9      0x6f6 SprEng_Display.o
 .debug_line    0x000066ef      0x977 SprEng_Common.o
 .debug_line    0x00007066      0xfb2 SprEng_SpongeBob.o
 .debug_line    0x00008018      0x48c SprEng_NPC.o
 .debug_line    0x000084a4      0x49a SprEng_Platforms.o
 .debug_line    0x0000893e      0x661 SprEng_Monsters.o
 .debug_line    0x00008f9f      0x489 Sinecos.o
 .debug_line    0x00009428      0x6aa Contours.o
 .debug_line    0x00009ad2      0x771 Text_Sys.o
 .debug_line    0x0000a243      0x567 Collision.o
 .debug_line    0x0000a7aa      0x594 Hub.o
 .debug_line    0x0000ad3e      0x9e0 Fade.o
 .debug_line    0x0000b71e      0x19d C:\PROGRA~1\Cygnus\thumbelf-000512\H-i686-cygwin32\bin/../lib/gcc-lib/thumb-elf/2.9-arm-000512/../../../../thumb-elf/lib/libg.a(strlen.o)

.debug_frame
 *(.debug_frame)

.debug_str
 *(.debug_str)

.debug_loc
 *(.debug_loc)

.debug_macinfo
 *(.debug_macinfo)

.debug_weaknames
 *(.debug_weaknames)

.debug_funcnames
 *(.debug_funcnames)

.debug_typenames
 *(.debug_typenames)

.debug_varnames
 *(.debug_varnames)

.stack          0x00080000        0x0
                0x00080000                _stack=.
 *(.stack)
OUTPUT(SBSPants_Release.elf elf32-littlearm)

.bss.code       0x03006d44      0x400
 .bss.code      0x03006d44      0x400 ../Sound/out/m4aLib.o
                0x03006d44                SoundMainBuf
