Archive member included       because of file (symbol)

C:/agb/lib//libisagbprn.a(ISAGBPRN.o)
                              main.o (AGBPrintInit)
../mlib//libutl.a(util.o)     prevbg.o (bit_and_table)
../mlib//libutl.a(controller.o)
                              main.o (ctrInit)
../mlib//libmpr.a(datatrans.o)
                              prevbg.o (dtSetDMA)
../mlib//libmpr.a(objmanage.o)
                              prevobj.o (omEval)
../mlib//libmpr.a(object.o)   prevobj.o (objEvaluate)
../mlib//libmpr.a(bgmanage.o)
                              prevbg.o (bmEval)
../mlib//libmpr.a(background.o)
                              prevbg.o (bgCreateBackground)
../mlib//libmpr.a(node.o)     ../mlib//libmpr.a(object.o) (nodeEvalStructInit)
../mlib//libmpr.a(node_object.o)
                              ../mlib//libmpr.a(node.o) (ndobEval)
../mlib//libmpr.a(node_image.o)
                              ../mlib//libmpr.a(node.o) (ndimEval)
../mlib//libmpr.a(node_animation.o)
                              ../mlib//libmpr.a(node.o) (ndanEval)
../mlib//libmpr.a(node_background.o)
                              ../mlib//libmpr.a(node.o) (ndbgEval)
../mlib//libmpr.a(ch_alloc.o)
                              prevobj.o (chalAlloc)
../mlib//libmpr.a(mpr.o)      main.o (mprInit)
C:/Cygnus/thumbelf-981216/H-i586-cygwin32/lib/gcc-lib/thumb-elf/2.9-armelf-981216//libgcc.a(__main.o)
                              main.o (__gccmain)
C:/Cygnus/thumbelf-981216/H-i586-cygwin32/lib/gcc-lib/thumb-elf/2.9-armelf-981216//libgcc.a(_call_via_rX.o)
                              C:/Cygnus/thumbelf-981216/H-i586-cygwin32/lib/gcc-lib/thumb-elf/2.9-armelf-981216//libgcc.a(__main.o) (_call_via_r0)
C:/Cygnus/thumbelf-981216/H-i586-cygwin32/lib/gcc-lib/thumb-elf/2.9-armelf-981216//libgcc.a(_ctors.o)
                              C:/Cygnus/thumbelf-981216/H-i586-cygwin32/lib/gcc-lib/thumb-elf/2.9-armelf-981216//libgcc.a(__main.o) (__CTOR_LIST__)
C:/Cygnus/thumbelf-981216/H-i586-cygwin32/lib/gcc-lib/thumb-elf/2.9-armelf-981216//libgcc.a(_divsi3.o)
                              ../mlib//libmpr.a(datatrans.o) (__divsi3)
C:/Cygnus/thumbelf-981216/H-i586-cygwin32/lib/gcc-lib/thumb-elf/2.9-armelf-981216//libgcc.a(_dvmd_tls.o)
                              C:/Cygnus/thumbelf-981216/H-i586-cygwin32/lib/gcc-lib/thumb-elf/2.9-armelf-981216//libgcc.a(_divsi3.o) (__div0)
C:/Cygnus/thumbelf-981216/H-i586-cygwin32/lib/gcc-lib/thumb-elf/2.9-armelf-981216//libgcc.a(_exit.o)
                              C:/Cygnus/thumbelf-981216/H-i586-cygwin32/lib/gcc-lib/thumb-elf/2.9-armelf-981216//libgcc.a(__main.o) (_exit_dummy_decl)
C:/Cygnus/thumbelf-981216/H-i586-cygwin32/lib/gcc-lib/thumb-elf/2.9-armelf-981216//libgcc.a(_udivsi3.o)
                              ../mlib//libutl.a(util.o) (__udivsi3)
C:/Cygnus/thumbelf-981216/H-i586-cygwin32/lib/gcc-lib/thumb-elf/2.9-armelf-981216//libgcc.a(_umodsi3.o)
                              ../mlib//libutl.a(util.o) (__umodsi3)
C:/Cygnus/thumbelf-981216/H-i586-cygwin32/thumb-elf/lib//libg.a(atexit.o)
                              C:/Cygnus/thumbelf-981216/H-i586-cygwin32/lib/gcc-lib/thumb-elf/2.9-armelf-981216//libgcc.a(__main.o) (atexit)
C:/Cygnus/thumbelf-981216/H-i586-cygwin32/thumb-elf/lib//libg.a(impure.o)
                              C:/Cygnus/thumbelf-981216/H-i586-cygwin32/thumb-elf/lib//libg.a(atexit.o) (_impure_ptr)
C:/Cygnus/thumbelf-981216/H-i586-cygwin32/thumb-elf/lib//libg.a(malloc.o)
                              C:/Cygnus/thumbelf-981216/H-i586-cygwin32/thumb-elf/lib//libg.a(atexit.o) (malloc)
C:/Cygnus/thumbelf-981216/H-i586-cygwin32/thumb-elf/lib//libg.a(mallocr.o)
                              C:/Cygnus/thumbelf-981216/H-i586-cygwin32/thumb-elf/lib//libg.a(malloc.o) (_malloc_r)
C:/Cygnus/thumbelf-981216/H-i586-cygwin32/thumb-elf/lib//libg.a(mlock.o)
                              C:/Cygnus/thumbelf-981216/H-i586-cygwin32/thumb-elf/lib//libg.a(mallocr.o) (__malloc_lock)
C:/Cygnus/thumbelf-981216/H-i586-cygwin32/thumb-elf/lib//libg.a(sbrkr.o)
                              C:/Cygnus/thumbelf-981216/H-i586-cygwin32/thumb-elf/lib//libg.a(mallocr.o) (_sbrk_r)
C:/Cygnus/thumbelf-981216/H-i586-cygwin32/thumb-elf/lib//libg.a(syscalls.o)
                              C:/Cygnus/thumbelf-981216/H-i586-cygwin32/thumb-elf/lib//libg.a(sbrkr.o) (_sbrk)
C:/Cygnus/thumbelf-981216/H-i586-cygwin32/thumb-elf/lib//libg.a(errno.o)
                              C:/Cygnus/thumbelf-981216/H-i586-cygwin32/thumb-elf/lib//libg.a(syscalls.o) (__errno)
C:/Cygnus/thumbelf-981216/H-i586-cygwin32/thumb-elf/lib//libg.a(freer.o)
                              C:/Cygnus/thumbelf-981216/H-i586-cygwin32/thumb-elf/lib//libg.a(malloc.o) (_free_r)
C:/Cygnus/thumbelf-981216/H-i586-cygwin32/thumb-elf/lib//libg.a(strlen.o)
                              C:/Cygnus/thumbelf-981216/H-i586-cygwin32/thumb-elf/lib//libg.a(syscalls.o) (strlen)

Allocating common symbols
Common symbol       size              file

__DTOR_LIST__       0x8               C:/Cygnus/thumbelf-981216/H-i586-cygwin32/lib/gcc-lib/thumb-elf/2.9-armelf-981216//libgcc.a(_ctors.o)
dtdmapm             0x600             ../mlib//libmpr.a(datatrans.o)
pbg_char_block_ID   0x10              prevbg.o
node_num_of_bgs     0x4               ../mlib//libmpr.a(node.o)
chal_nouse_ptr      0x4               ../mlib//libmpr.a(ch_alloc.o)
IntrCheck           0x4               main.o
pbg_control_flag    0x4               prevbg.o
omSRCount           0x4               ../mlib//libmpr.a(objmanage.o)
chal_start_number   0x4               ../mlib//libmpr.a(ch_alloc.o)
omOPCount           0x4               ../mlib//libmpr.a(objmanage.o)
pobjCount           0x4               prevobj.o
node_object_table_ptr
                    0x4               ../mlib//libmpr.a(node.o)
chal_node_count     0x4               ../mlib//libmpr.a(ch_alloc.o)
pbg_mem_use_flag    0x4               prevbg.o
pobj_ptr            0x200             prevobj.o
obj                 0x1200            ../mlib//libmpr.a(object.o)
omlnode             0x200             ../mlib//libmpr.a(objmanage.o)
bg                  0xe0              ../mlib//libmpr.a(background.o)
omObjLNCount        0x4               ../mlib//libmpr.a(objmanage.o)
active_object_number
                    0x4               prevobj.o
oml                 0x40              ../mlib//libmpr.a(objmanage.o)
bg_mode             0x4               ../mlib//libmpr.a(bgmanage.o)
map_vram            0x40              ../mlib//libmpr.a(background.o)
om_use_sort_key_flag
                    0x4               ../mlib//libmpr.a(objmanage.o)
om_sort_key         0x100             ../mlib//libmpr.a(objmanage.o)
__CTOR_LIST__       0x8               C:/Cygnus/thumbelf-981216/H-i586-cygwin32/lib/gcc-lib/thumb-elf/2.9-armelf-981216//libgcc.a(_ctors.o)
pbg_bg_ptr          0x10              prevbg.o
app_control_mode    0x4               main.o
om_sort_number      0x80              ../mlib//libmpr.a(objmanage.o)
chal_end_number     0x4               ../mlib//libmpr.a(ch_alloc.o)
omop                0x400             ../mlib//libmpr.a(objmanage.o)
omrsp               0x100             ../mlib//libmpr.a(objmanage.o)
nodeHeaderChunk_ptr
                    0x4               ../mlib//libmpr.a(node.o)
dtCount             0x4               ../mlib//libmpr.a(datatrans.o)
bgRegDG             0x38              ../mlib//libmpr.a(bgmanage.o)
sdf                 0x4               ../mlib//libmpr.a(bgmanage.o)
objCount            0x4               ../mlib//libmpr.a(object.o)
chal_node_buffer    0x800             ../mlib//libmpr.a(ch_alloc.o)
Cont                0x4               ../mlib//libutl.a(controller.o)
node_offset_table_ptr
                    0x4               ../mlib//libmpr.a(node.o)
node_num_of_objects
                    0x4               ../mlib//libmpr.a(node.o)
dtDMACount          0x4               ../mlib//libmpr.a(datatrans.o)
pobjNumber          0x4               prevobj.o
chal_origin_ptr     0x4               ../mlib//libmpr.a(ch_alloc.o)
errno               0x4               C:/Cygnus/thumbelf-981216/H-i586-cygwin32/thumb-elf/lib//libg.a(sbrkr.o)
Trg                 0x4               ../mlib//libutl.a(controller.o)
IntrMainBuf         0x800             main.o
dtpm                0xa00             ../mlib//libmpr.a(datatrans.o)
omOamDG             0x400             ../mlib//libmpr.a(objmanage.o)

Memory Configuration

Name             Origin             Length             Attributes
*default*        0x00000000         0xffffffff

Linker script and memory map

LOAD crt0.o
LOAD main.o
LOAD prevobj.o
LOAD prevbg.o
LOAD prevdata.o
LOAD C:/agb/lib//libisagbprn.a
LOAD ../mlib//libutl.a
LOAD ../mlib//libmpr.a
LOAD C:/Cygnus/thumbelf-981216/H-i586-cygwin32/lib/gcc-lib/thumb-elf/2.9-armelf-981216//libgcc.a
LOAD C:/Cygnus/thumbelf-981216/H-i586-cygwin32/thumb-elf/lib//libg.a
LOAD C:/Cygnus/thumbelf-981216/H-i586-cygwin32/thumb-elf/lib//libc.a
LOAD C:/Cygnus/thumbelf-981216/H-i586-cygwin32/lib/gcc-lib/thumb-elf/2.9-armelf-981216//libgcc.a
Address of section .text set to 0x8000000
Address of section .bss set to 0x2000000
                0x00008000                .=0x8000

.interp
 *(.interp)

.hash
 *(.hash)

.dynsym
 *(.dynsym)

.dynstr
 *(.dynstr)

.gnu.version
 *(.gnu.version)

.gnu.version_d
 *(.gnu.version_d)

.gnu.version_r
 *(.gnu.version_r)

.rel.text
 *(.rel.text)
 *(.rel.text.*)
 *(.rel.gnu.linkonce.t*)

.rela.text
 *(.rela.text)
 *(.rela.text.*)
 *(.rela.gnu.linkonce.t*)

.rel.data
 *(.rel.data)
 *(.rel.data.*)
 *(.rel.gnu.linkonce.d*)

.rela.data
 *(.rela.data)
 *(.rela.data.*)
 *(.rela.gnu.linkonce.d*)

.rel.rodata
 *(.rel.rodata)
 *(.rel.rodata.*)
 *(.rel.gnu.linkonce.r*)

.rela.rodata
 *(.rela.rodata)
 *(.rela.rodata.*)
 *(.rela.gnu.linkonce.r*)

.rel.got
 *(.rel.got)

.rela.got
 *(.rela.got)

.rel.ctors
 *(.rel.ctors)

.rela.ctors
 *(.rela.ctors)

.rel.dtors
 *(.rel.dtors)

.rela.dtors
 *(.rela.dtors)

.rel.init
 *(.rel.init)

.rela.init
 *(.rela.init)

.rel.fini
 *(.rel.fini)

.rela.fini
 *(.rela.fini)

.rel.bss
 *(.rel.bss)

.rela.bss
 *(.rela.bss)

.rel.plt
 *(.rel.plt)

.rela.plt
 *(.rela.plt)

.init
 *(.init)

.plt
 *(.plt)

.text           0x08000000     0x46a0
 *(.text)
 .text          0x08000000      0x12c crt0.o
                0x08000000                start_vector
                0x08000000                start
                0x0800003c                intr_main
 .text          0x0800012c      0x1ac main.o
                0x08000234                appInit
                0x0800026c                appControl
                0x08000218                VBlankIntr
                0x0800012c                main
 .text          0x080002d8      0x2a0 prevobj.o
                0x080002f4                pobjCreateObject
                0x080002d8                pobjInit
                0x08000378                pobjControl
                0x08000520                pobjEvaluate
 .text          0x08000578      0x540 prevbg.o
                0x08000680                pbg_get_screen_mem_block
                0x08000a94                pbgEvaluate
                0x08000578                pbgInit
                0x080005ac                pbg_set_character_dt
                0x080006f0                pbgCreateBackground
                0x080005f4                pbg_get_character_mem_block
                0x08000780                pbgControl
                0x08000a74                pbgLoopInit
 .text          0x08000ab8      0x2dc C:/agb/lib//libisagbprn.a(ISAGBPRN.o)
                0x08000c70                AGBAssert
                0x08000ab8                AGBPrintInit
                0x08000af0                AGBPutc
                0x08000b9c                AGBPrint
                0x08000c08                AGBPrintFlush
 .text          0x08000d94      0x1a4 ../mlib//libutl.a(util.o)
                0x08000dec                PrintNumHex
                0x08000e3c                SRMatrixSetIdent
                0x08000f10                RefStartCoordSetIdent
                0x08000e4c                SRMatrixSet
                0x08000d94                PrintNum
                0x08000e9c                RefStartCoordSet
 .text          0x08000f38       0x40 ../mlib//libutl.a(controller.o)
                0x08000f38                ctrInit
                0x08000f4c                ctrRead
 .text          0x08000f78      0x29c ../mlib//libmpr.a(datatrans.o)
                0x08000f8c                dtSet
                0x080010e0                dtStepTransDo
                0x08000f78                dtClear
                0x080011e0                dtOneDMADo
                0x08001040                dtSetDMA
                0x080010d0                dtDo
                0x080011a8                dtDMADo
                0x08001110                dtOneStepTransDo
 .text          0x08001214      0x99c ../mlib//libmpr.a(objmanage.o)
                0x08001990                omlistSet
                0x08001320                omInitObjectInstance
                0x08001a00                omEval
                0x08001214                omInit
                0x08001630                omCalcOffsetFromMatrix
                0x080015b0                omSetMatrix
                0x080015e4                omSetScaleRotate
                0x08001244                omClear
                0x0800134c                omSetObject
                0x080017b4                omCalcOffsetFromScaleRotate
 .text          0x08001bb0      0x248 ../mlib//libmpr.a(object.o)
                0x08001db4                obj_set_default_data
                0x08001bbc                objCreateObject
                0x08001cd8                objSetRotation
                0x08001d0c                objSetMosaic
                0x08001d38                objEvaluate
                0x08001ce4                objMultiRotation
                0x08001c60                objSetScale
                0x08001d24                objChangeGroup
                0x08001c7c                objMultiScale
                0x08001cf8                objChangeObjMode
                0x08001d18                objClearMosaic
                0x08001bb0                objInit
 .text          0x08001df8      0x9b4 ../mlib//libmpr.a(bgmanage.o)
                0x08001e78                bmClear
                0x08001edc                bmInitBackgroundInstance
                0x08001e0c                bmInitMapDataTransSet
                0x08001ee4                bmSetBackground
                0x080023d0                bm_vram_get_true_coord
                0x08001df8                bmSetBGMode
                0x08002788                bmEval
 .text          0x080027ac      0x3c8 ../mlib//libmpr.a(background.o)
                0x080029f8                bgClearMosaic
                0x080029c4                bgMultiRotation
                0x08002940                bgSetScale
                0x080029ec                bgSetMosaic
                0x08002900                bg_create_set_ch_DMA
                0x08002a18                bgEvaluate
                0x080029d8                bgChangeMode
                0x080027b8                bgCreateBackground
                0x080027ac                bgSetMode
                0x080029b8                bgSetRotation
                0x08002a04                bgChangePriority
                0x0800295c                bgMultiScale
 .text          0x08002b74      0x2d8 ../mlib//libmpr.a(node.o)
                0x08002be4                nodeGetMagicByID
                0x08002e24                mgCallEvalFunction
                0x08002c58                nodeCreateObject
                0x08002c30                nodeGetNumOfObjects
                0x08002c3c                nodeGetNumOfBGs
                0x08002c8c                node_eval_disp_header
                0x08002c0c                nodeCallEvalFunction
                0x08002b74                ndhcEvaluate
                0x08002cc0                node_eval_nodes_offset
                0x08002d30                node_eval_bgs
                0x08002bc0                nodeGetAddressByID
                0x08002ba0                nodeEvalStructInit
                0x08002ccc                node_eval_objects
                0x08002c48                nodeGetObjectIDByNumber
 .text          0x08002e4c       0x6c ../mlib//libmpr.a(node_object.o)
                0x08002e4c                ndobEval
                0x08002eac                ndobGetColorMode
                0x08002e88                ndobGetUseCharacterNum
 .text          0x08002eb8       0x78 ../mlib//libmpr.a(node_image.o)
                0x08002f14                ndimGetPitch
                0x08002ebc                ndimGetAddress
                0x08002efc                ndimGetAddressByIndex
                0x08002eb8                ndimEval
                0x08002f20                ndimGetDataSize
 .text          0x08002f30      0x500 ../mlib//libmpr.a(node_animation.o)
                0x08003350                ndmaEval
                0x080031d8                ndraEval
                0x08002fd4                ndfbEval
                0x080030f8                ndoaEval
                0x08002f30                ndanEval
                0x08002f88                ndmsEval
                0x08003074                ndpaEval
                0x08002f54                ndswEval
                0x08003274                ndsaEval
 .text          0x08003430       0x24 ../mlib//libmpr.a(node_background.o)
                0x08003430                ndbgEval
 .text          0x08003454      0x1d8 ../mlib//libmpr.a(ch_alloc.o)
                0x08003570                chalFree
                0x08003454                chalInit
                0x080034a0                chalAlloc
 .text          0x0800362c       0x44 ../mlib//libmpr.a(mpr.o)
                0x08003658                mprVBlankFnc
                0x0800362c                mprInit
 .text          0x08003670       0x8c C:/Cygnus/thumbelf-981216/H-i586-cygwin32/lib/gcc-lib/thumb-elf/2.9-armelf-981216//libgcc.a(__main.o)
                0x08003670                __do_global_dtors
                0x080036e4                __gccmain
                0x08003698                __do_global_ctors
 .text          0x080036fc       0x3c C:/Cygnus/thumbelf-981216/H-i586-cygwin32/lib/gcc-lib/thumb-elf/2.9-armelf-981216//libgcc.a(_call_via_rX.o)
                0x08003720                _call_via_r9
                0x08003708                _call_via_r3
                0x08003728                _call_via_fp
                0x080036fc                _call_via_r0
                0x08003724                _call_via_sl
                0x08003714                _call_via_r6
                0x08003730                _call_via_sp
                0x0800372c                _call_via_ip
                0x08003718                _call_via_r7
                0x08003700                _call_via_r1
                0x0800371c                _call_via_r8
                0x08003704                _call_via_r2
                0x08003710                _call_via_r5
                0x0800370c                _call_via_r4
                0x08003734                _call_via_lr
 .text          0x08003738       0x94 C:/Cygnus/thumbelf-981216/H-i586-cygwin32/lib/gcc-lib/thumb-elf/2.9-armelf-981216//libgcc.a(_divsi3.o)
                0x08003738                __divsi3
 .text          0x080037cc        0x4 C:/Cygnus/thumbelf-981216/H-i586-cygwin32/lib/gcc-lib/thumb-elf/2.9-armelf-981216//libgcc.a(_dvmd_tls.o)
                0x080037cc                __div0
 .text          0x080037d0       0x78 C:/Cygnus/thumbelf-981216/H-i586-cygwin32/lib/gcc-lib/thumb-elf/2.9-armelf-981216//libgcc.a(_udivsi3.o)
                0x080037d0                __udivsi3
 .text          0x08003848       0xc0 C:/Cygnus/thumbelf-981216/H-i586-cygwin32/lib/gcc-lib/thumb-elf/2.9-armelf-981216//libgcc.a(_umodsi3.o)
                0x08003848                __umodsi3
 .text          0x08003908       0x5c C:/Cygnus/thumbelf-981216/H-i586-cygwin32/thumb-elf/lib//libg.a(atexit.o)
                0x08003908                atexit
 .text          0x08003964       0x28 C:/Cygnus/thumbelf-981216/H-i586-cygwin32/thumb-elf/lib//libg.a(malloc.o)
                0x08003978                free
                0x08003964                malloc
 .text          0x0800398c      0x54c C:/Cygnus/thumbelf-981216/H-i586-cygwin32/thumb-elf/lib//libg.a(mallocr.o)
                0x08003af4                _malloc_r
 .text          0x08003ed8        0x8 C:/Cygnus/thumbelf-981216/H-i586-cygwin32/thumb-elf/lib//libg.a(mlock.o)
                0x08003ed8                __malloc_lock
                0x08003edc                __malloc_unlock
 .text          0x08003ee0       0x2c C:/Cygnus/thumbelf-981216/H-i586-cygwin32/thumb-elf/lib//libg.a(sbrkr.o)
                0x08003ee0                _sbrk_r
 .text          0x08003f0c      0x490 C:/Cygnus/thumbelf-981216/H-i586-cygwin32/thumb-elf/lib//libg.a(syscalls.o)
                0x0800428c                _exit
                0x080042ec                _getpid
                0x08004148                _write
                0x0800404c                _read
                0x08004338                _unlink
                0x08004238                _open
                0x08004094                _swilseek
                0x08004340                isatty
                0x080042cc                _kill
                0x08004124                _swiwrite
                0x08004348                _gettimeofday
                0x08004344                _raise
                0x08003f74                initialise_monitor_handles
                0x08004398                alarm
                0x08004194                _swiopen
                0x08004118                _lseek
                0x080042ac                abort
                0x08004280                _close
                0x08004374                _times
                0x08004028                _swiread
                0x0800432c                _fstat
                0x080042f0                _sbrk
                0x0800424c                _swiclose
 .text          0x0800439c        0xc C:/Cygnus/thumbelf-981216/H-i586-cygwin32/thumb-elf/lib//libg.a(errno.o)
                0x0800439c                __errno
 .text          0x080043a8      0x298 C:/Cygnus/thumbelf-981216/H-i586-cygwin32/thumb-elf/lib//libg.a(freer.o)
                0x08004578                _malloc_trim_r
                0x080043a8                _free_r
 .text          0x08004640       0x50 C:/Cygnus/thumbelf-981216/H-i586-cygwin32/thumb-elf/lib//libg.a(strlen.o)
                0x08004640                strlen
 *(.text.*)
 *(.stub)
 *(.gnu.warning)
 *(.gnu.linkonce.t*)
 *(.glue_7t)
 .glue_7t       0x08004690       0x10 C:/Cygnus/thumbelf-981216/H-i586-cygwin32/thumb-elf/lib//libg.a(strlen.o)
                0x0800469c                __AGBPrint_change_to_arm
                0x08004690                __AGBPrintInit_from_thumb
                0x08004694                __AGBPrintInit_change_to_arm
                0x08004698                __AGBPrint_from_thumb
 *(.glue_7)
                0x080046a0                _etext=.
                0x080046a0                PROVIDE (etext, .)

.fini
 *(.fini)

.rodata         0x080046a0      0xc40
 *(.rodata)
 .rodata        0x080046a0       0x3c main.o
                0x080046a0                IntrTable
 .rodata        0x080046dc      0x704 prevdata.o
                0x080049a0                pal1Image
                0x08004d20                scl1Scale_Key
                0x08004ce4                fb1FlipBook
                0x08004754                prev_node_header
                0x08004c88                sw5Switch_State
                0x08004770                obj1Object
                0x08004d60                ofs1Offset_Key
                0x08004d08                rot1Rotation
                0x08004be0                ballImage
                0x08004c74                sw4Switch
                0x08004dc8                mv1Move
                0x08004d88                ofs1Offset
                0x08004714                node_table
                0x08004c40                sw3Switch_State
                0x080049cc                anim1Animation
                0x08004bf8                sw1Switch_State
                0x08004c64                sw4Switch_State
                0x08004d48                scl1Scale
                0x080049b8                anim1Animation_child
                0x08004c98                sw5Switch
                0x08004c1c                sw2Switch_State
                0x080046dc                DefaultDispHeader
                0x080046f8                RootBGs
                0x08004cac                fb1FlipBook_Key
                0x080049e0                ballImage_data
                0x080047a0                pal1Image_data
                0x08004da0                mv1Move_Key
                0x08004c2c                sw2Switch
                0x08004c50                sw3Switch
                0x0800474c                node_offset_table
                0x08004c08                sw1Switch
                0x08004cfc                rot1Rotation_Key
                0x080046ec                RootObjects
                0x080046e8                RootObjects_Table
 .rodata        0x08004de0       0x4c C:/agb/lib//libisagbprn.a(ISAGBPRN.o)
 .rodata        0x08004e2c      0x448 ../mlib//libutl.a(util.o)
                0x0800522c                bit_value_table
                0x08004e2c                rsin
                0x0800524c                bit_and_table
                0x0800502c                rcos
                0x0800526c                rs_ident
 .rodata        0x08005274       0x10 ../mlib//libmpr.a(datatrans.o)
                0x08005274                dtDMAREGADDRESS
 .rodata        0x08005284       0x30 ../mlib//libmpr.a(node.o)
                0x08005284                eval_fnc_array
 .rodata        0x080052b4        0x4 C:/Cygnus/thumbelf-981216/H-i586-cygwin32/thumb-elf/lib//libg.a(impure.o)
 .rodata        0x080052b8       0x28 C:/Cygnus/thumbelf-981216/H-i586-cygwin32/thumb-elf/lib//libg.a(syscalls.o)
 *(.rodata.*)
 *(.gnu.linkonce.r*)

.rodata1
 *(.rodata1)
                0x080053e0                .=(ALIGN(0x100)+(.&0xff))

.data           0x080053e0      0x760
 *(.data)
 .data          0x080053e0       0x20 ../mlib//libmpr.a(bgmanage.o)
                0x080053e0                ref_ptr
                0x080053f0                rsmtx_ptr
 .data          0x08005400        0x8 C:/Cygnus/thumbelf-981216/H-i586-cygwin32/lib/gcc-lib/thumb-elf/2.9-armelf-981216//libgcc.a(__main.o)
                0x08005404                _exit_dummy_ref
 .data          0x08005408        0x4 C:/Cygnus/thumbelf-981216/H-i586-cygwin32/lib/gcc-lib/thumb-elf/2.9-armelf-981216//libgcc.a(_exit.o)
                0x08005408                _exit_dummy_decl
 .data          0x0800540c      0x2f0 C:/Cygnus/thumbelf-981216/H-i586-cygwin32/thumb-elf/lib//libg.a(impure.o)
                0x080056f8                _impure_ptr
 .data          0x080056fc      0x444 C:/Cygnus/thumbelf-981216/H-i586-cygwin32/thumb-elf/lib//libg.a(mallocr.o)
                0x08005b08                __malloc_top_pad
                0x08005b18                __malloc_current_mallinfo
                0x080056fc                __malloc_av_
                0x08005b04                __malloc_trim_threshold
                0x08005b0c                __malloc_sbrk_base
                0x08005b10                __malloc_max_sbrked_mem
                0x08005b14                __malloc_max_total_mem
 *(.data.*)
 *(.gnu.linkonce.d*)

.data1
 *(.data1)

.ctors
 *crtbegin.o(.ctors)
 *(SORT(.ctors.*))
 *(.ctors)

.dtors
 *crtbegin.o(.dtors)
 *(SORT(.dtors.*))
 *(.dtors)

.got
 *(.got.plt)
 *(.got)

.dynamic
 *(.dynamic)

.sdata
 *(.sdata)
                0x08005b40                _edata=.
                0x08005b40                PROVIDE (edata, .)
                0x08005b40                __bss_start=.
                0x08005b40                __bss_start__=.

.sbss
 *(.sbss)
 *(.scommon)

.bss            0x02000000     0x43fc
 *(.dynbss)
 *(.bss)
 .bss           0x02000000        0x4 C:/Cygnus/thumbelf-981216/H-i586-cygwin32/lib/gcc-lib/thumb-elf/2.9-armelf-981216//libgcc.a(__main.o)
 *fill*         0x02000004        0x4
 .bss           0x02000008       0xb0 C:/Cygnus/thumbelf-981216/H-i586-cygwin32/thumb-elf/lib//libg.a(syscalls.o)
 *(COMMON)
 *fill*         0x020000b8        0x8
 COMMON         0x020000c0      0x810 main.o
                                  0x0 (size before relaxing)
                0x020000c0                IntrCheck
                0x020000c4                app_control_mode
                0x020000d0                IntrMainBuf
 COMMON         0x020008d0      0x218 prevobj.o
                                  0x0 (size before relaxing)
                0x020008d0                pobjCount
                0x020008e0                pobj_ptr
                0x02000ae0                active_object_number
                0x02000ae4                pobjNumber
 *fill*         0x02000ae8        0x8
 COMMON         0x02000af0       0x30 prevbg.o
                                  0x0 (size before relaxing)
                0x02000af0                pbg_char_block_ID
                0x02000b00                pbg_control_flag
                0x02000b04                pbg_mem_use_flag
                0x02000b10                pbg_bg_ptr
 COMMON         0x02000b20        0x8 ../mlib//libutl.a(controller.o)
                                  0x0 (size before relaxing)
                0x02000b20                Cont
                0x02000b24                Trg
 *fill*         0x02000b28        0x8
 COMMON         0x02000b30     0x1010 ../mlib//libmpr.a(datatrans.o)
                                  0x0 (size before relaxing)
                0x02000b30                dtdmapm
                0x02001130                dtCount
                0x02001134                dtDMACount
                0x02001140                dtpm
 COMMON         0x02001b40      0xcf0 ../mlib//libmpr.a(objmanage.o)
                                  0x0 (size before relaxing)
                0x02001b40                omSRCount
                0x02001b44                omOPCount
                0x02001b50                omlnode
                0x02001d50                omObjLNCount
                0x02001d60                oml
                0x02001da0                om_use_sort_key_flag
                0x02001db0                om_sort_key
                0x02001eb0                om_sort_number
                0x02001f30                omop
                0x02002330                omrsp
                0x02002430                omOamDG
 COMMON         0x02002830     0x1204 ../mlib//libmpr.a(object.o)
                                  0x0 (size before relaxing)
                0x02002830                obj
                0x02003a30                objCount
 *fill*         0x02003a34        0xc
 COMMON         0x02003a40       0x4c ../mlib//libmpr.a(bgmanage.o)
                                  0x0 (size before relaxing)
                0x02003a40                bg_mode
                0x02003a50                bgRegDG
                0x02003a88                sdf
 *fill*         0x02003a8c        0x4
 COMMON         0x02003a90      0x120 ../mlib//libmpr.a(background.o)
                                  0x0 (size before relaxing)
                0x02003a90                bg
                0x02003b70                map_vram
 COMMON         0x02003bb0       0x14 ../mlib//libmpr.a(node.o)
                                  0x0 (size before relaxing)
                0x02003bb0                node_num_of_bgs
                0x02003bb4                node_object_table_ptr
                0x02003bb8                nodeHeaderChunk_ptr
                0x02003bbc                node_offset_table_ptr
                0x02003bc0                node_num_of_objects
 *fill*         0x02003bc4        0xc
 COMMON         0x02003bd0      0x814 ../mlib//libmpr.a(ch_alloc.o)
                                  0x0 (size before relaxing)
                0x02003bd0                chal_nouse_ptr
                0x02003bd4                chal_start_number
                0x02003bd8                chal_node_count
                0x02003bdc                chal_end_number
                0x02003be0                chal_node_buffer
                0x020043e0                chal_origin_ptr
 *fill*         0x020043e4        0x4
 COMMON         0x020043e8       0x10 C:/Cygnus/thumbelf-981216/H-i586-cygwin32/lib/gcc-lib/thumb-elf/2.9-armelf-981216//libgcc.a(_ctors.o)
                                  0x0 (size before relaxing)
                0x020043e8                __DTOR_LIST__
                0x020043f0                __CTOR_LIST__
 COMMON         0x020043f8        0x4 C:/Cygnus/thumbelf-981216/H-i586-cygwin32/thumb-elf/lib//libg.a(sbrkr.o)
                                  0x0 (size before relaxing)
                0x020043f8                errno
                0x020043fc                .=ALIGN(0x4)
                0x020043fc                _end=.
                0x020043fc                _bss_end__=.
                0x020043fc                __bss_end__=.
                0x020043fc                PROVIDE (end, .)

.stab
 *(.stab)

.stabstr
 *(.stabstr)

.stab.excl
 *(.stab.excl)

.stab.exclstr
 *(.stab.exclstr)

.stab.index
 *(.stab.index)

.stab.indexstr
 *(.stab.indexstr)

.comment
 *(.comment)

.debug
 *(.debug)

.line
 *(.line)

.debug_srcinfo
 *(.debug_srcinfo)

.debug_sfnames
 *(.debug_sfnames)

.debug_aranges  0x00000000      0x360
 *(.debug_aranges)
 .debug_aranges
                0x00000000       0x20 main.o
 .debug_aranges
                0x00000020       0x20 prevobj.o
 .debug_aranges
                0x00000040       0x20 prevbg.o
 .debug_aranges
                0x00000060       0x20 ../mlib//libutl.a(util.o)
 .debug_aranges
                0x00000080       0x20 ../mlib//libutl.a(controller.o)
 .debug_aranges
                0x000000a0       0x20 ../mlib//libmpr.a(datatrans.o)
 .debug_aranges
                0x000000c0       0x20 ../mlib//libmpr.a(objmanage.o)
 .debug_aranges
                0x000000e0       0x20 ../mlib//libmpr.a(object.o)
 .debug_aranges
                0x00000100       0x20 ../mlib//libmpr.a(bgmanage.o)
 .debug_aranges
                0x00000120       0x20 ../mlib//libmpr.a(background.o)
 .debug_aranges
                0x00000140       0x20 ../mlib//libmpr.a(node.o)
 .debug_aranges
                0x00000160       0x20 ../mlib//libmpr.a(node_object.o)
 .debug_aranges
                0x00000180       0x20 ../mlib//libmpr.a(node_image.o)
 .debug_aranges
                0x000001a0       0x20 ../mlib//libmpr.a(node_animation.o)
 .debug_aranges
                0x000001c0       0x20 ../mlib//libmpr.a(node_background.o)
 .debug_aranges
                0x000001e0       0x20 ../mlib//libmpr.a(ch_alloc.o)
 .debug_aranges
                0x00000200       0x20 ../mlib//libmpr.a(mpr.o)
 .debug_aranges
                0x00000220       0x20 C:/Cygnus/thumbelf-981216/H-i586-cygwin32/lib/gcc-lib/thumb-elf/2.9-armelf-981216//libgcc.a(__main.o)
 .debug_aranges
                0x00000240       0x20 C:/Cygnus/thumbelf-981216/H-i586-cygwin32/thumb-elf/lib//libg.a(atexit.o)
 .debug_aranges
                0x00000260       0x20 C:/Cygnus/thumbelf-981216/H-i586-cygwin32/thumb-elf/lib//libg.a(malloc.o)
 .debug_aranges
                0x00000280       0x20 C:/Cygnus/thumbelf-981216/H-i586-cygwin32/thumb-elf/lib//libg.a(mallocr.o)
 .debug_aranges
                0x000002a0       0x20 C:/Cygnus/thumbelf-981216/H-i586-cygwin32/thumb-elf/lib//libg.a(mlock.o)
 .debug_aranges
                0x000002c0       0x20 C:/Cygnus/thumbelf-981216/H-i586-cygwin32/thumb-elf/lib//libg.a(sbrkr.o)
 .debug_aranges
                0x000002e0       0x20 C:/Cygnus/thumbelf-981216/H-i586-cygwin32/thumb-elf/lib//libg.a(syscalls.o)
 .debug_aranges
                0x00000300       0x20 C:/Cygnus/thumbelf-981216/H-i586-cygwin32/thumb-elf/lib//libg.a(errno.o)
 .debug_aranges
                0x00000320       0x20 C:/Cygnus/thumbelf-981216/H-i586-cygwin32/thumb-elf/lib//libg.a(freer.o)
 .debug_aranges
                0x00000340       0x20 C:/Cygnus/thumbelf-981216/H-i586-cygwin32/thumb-elf/lib//libg.a(strlen.o)

.debug_pubnames
                0x00000000     0x1246
 *(.debug_pubnames)
 .debug_pubnames
                0x00000000       0x86 main.o
 .debug_pubnames
                0x00000086       0x98 prevobj.o
 .debug_pubnames
                0x0000011e      0x10a prevbg.o
 .debug_pubnames
                0x00000228      0x263 prevdata.o
 .debug_pubnames
                0x0000048b       0xc8 ../mlib//libutl.a(util.o)
 .debug_pubnames
                0x00000553       0x3b ../mlib//libutl.a(controller.o)
 .debug_pubnames
                0x0000058e       0xc4 ../mlib//libmpr.a(datatrans.o)
 .debug_pubnames
                0x00000652      0x167 ../mlib//libmpr.a(objmanage.o)
 .debug_pubnames
                0x000007b9      0x106 ../mlib//libmpr.a(object.o)
 .debug_pubnames
                0x000008bf       0xd9 ../mlib//libmpr.a(bgmanage.o)
 .debug_pubnames
                0x00000998      0x10d ../mlib//libmpr.a(background.o)
 .debug_pubnames
                0x00000aa5      0x1db ../mlib//libmpr.a(node.o)
 .debug_pubnames
                0x00000c80       0x4f ../mlib//libmpr.a(node_object.o)
 .debug_pubnames
                0x00000ccf       0x71 ../mlib//libmpr.a(node_image.o)
 .debug_pubnames
                0x00000d40       0x87 ../mlib//libmpr.a(node_animation.o)
 .debug_pubnames
                0x00000dc7       0x1f ../mlib//libmpr.a(node_background.o)
 .debug_pubnames
                0x00000de6       0xb4 ../mlib//libmpr.a(ch_alloc.o)
 .debug_pubnames
                0x00000e9a       0x2f ../mlib//libmpr.a(mpr.o)
 .debug_pubnames
                0x00000ec9       0x4c C:/Cygnus/thumbelf-981216/H-i586-cygwin32/lib/gcc-lib/thumb-elf/2.9-armelf-981216//libgcc.a(__main.o)
 .debug_pubnames
                0x00000f15       0x1d C:/Cygnus/thumbelf-981216/H-i586-cygwin32/thumb-elf/lib//libg.a(atexit.o)
 .debug_pubnames
                0x00000f32       0x22 C:/Cygnus/thumbelf-981216/H-i586-cygwin32/thumb-elf/lib//libg.a(impure.o)
 .debug_pubnames
                0x00000f54       0x26 C:/Cygnus/thumbelf-981216/H-i586-cygwin32/thumb-elf/lib//libg.a(malloc.o)
 .debug_pubnames
                0x00000f7a       0xce C:/Cygnus/thumbelf-981216/H-i586-cygwin32/thumb-elf/lib//libg.a(mallocr.o)
 .debug_pubnames
                0x00001048       0x38 C:/Cygnus/thumbelf-981216/H-i586-cygwin32/thumb-elf/lib//libg.a(mlock.o)
 .debug_pubnames
                0x00001080       0x28 C:/Cygnus/thumbelf-981216/H-i586-cygwin32/thumb-elf/lib//libg.a(sbrkr.o)
 .debug_pubnames
                0x000010a8      0x132 C:/Cygnus/thumbelf-981216/H-i586-cygwin32/thumb-elf/lib//libg.a(syscalls.o)
 .debug_pubnames
                0x000011da       0x1e C:/Cygnus/thumbelf-981216/H-i586-cygwin32/thumb-elf/lib//libg.a(errno.o)
 .debug_pubnames
                0x000011f8       0x31 C:/Cygnus/thumbelf-981216/H-i586-cygwin32/thumb-elf/lib//libg.a(freer.o)
 .debug_pubnames
                0x00001229       0x1d C:/Cygnus/thumbelf-981216/H-i586-cygwin32/thumb-elf/lib//libg.a(strlen.o)

.debug_info     0x00000000    0x42a9d
 *(.debug_info)
 .debug_info    0x00000000     0x3198 main.o
 .debug_info    0x00003198     0x318a prevobj.o
 .debug_info    0x00006322     0x378d prevbg.o
 .debug_info    0x00009aaf     0x3d41 prevdata.o
 .debug_info    0x0000d7f0     0x2ede ../mlib//libutl.a(util.o)
 .debug_info    0x000106ce     0x2b47 ../mlib//libutl.a(controller.o)
 .debug_info    0x00013215     0x3021 ../mlib//libmpr.a(datatrans.o)
 .debug_info    0x00016236     0x3df4 ../mlib//libmpr.a(objmanage.o)
 .debug_info    0x0001a02a     0x383d ../mlib//libmpr.a(object.o)
 .debug_info    0x0001d867     0x3ddc ../mlib//libmpr.a(bgmanage.o)
 .debug_info    0x00021643     0x3b79 ../mlib//libmpr.a(background.o)
 .debug_info    0x000251bc     0x396e ../mlib//libmpr.a(node.o)
 .debug_info    0x00028b2a     0x351d ../mlib//libmpr.a(node_object.o)
 .debug_info    0x0002c047     0x342c ../mlib//libmpr.a(node_image.o)
 .debug_info    0x0002f473     0x4192 ../mlib//libmpr.a(node_animation.o)
 .debug_info    0x00033605     0x364f ../mlib//libmpr.a(node_background.o)
 .debug_info    0x00036c54     0x2a9e ../mlib//libmpr.a(ch_alloc.o)
 .debug_info    0x000396f2     0x2bc9 ../mlib//libmpr.a(mpr.o)
 .debug_info    0x0003c2bb      0x10f C:/Cygnus/thumbelf-981216/H-i586-cygwin32/lib/gcc-lib/thumb-elf/2.9-armelf-981216//libgcc.a(__main.o)
 .debug_info    0x0003c3ca       0xb3 C:/Cygnus/thumbelf-981216/H-i586-cygwin32/lib/gcc-lib/thumb-elf/2.9-armelf-981216//libgcc.a(_ctors.o)
 .debug_info    0x0003c47d       0xb3 C:/Cygnus/thumbelf-981216/H-i586-cygwin32/lib/gcc-lib/thumb-elf/2.9-armelf-981216//libgcc.a(_exit.o)
 .debug_info    0x0003c530      0x832 C:/Cygnus/thumbelf-981216/H-i586-cygwin32/thumb-elf/lib//libg.a(atexit.o)
 .debug_info    0x0003cd62      0x76e C:/Cygnus/thumbelf-981216/H-i586-cygwin32/thumb-elf/lib//libg.a(impure.o)
 .debug_info    0x0003d4d0      0x8f7 C:/Cygnus/thumbelf-981216/H-i586-cygwin32/thumb-elf/lib//libg.a(malloc.o)
 .debug_info    0x0003ddc7      0xdbd C:/Cygnus/thumbelf-981216/H-i586-cygwin32/thumb-elf/lib//libg.a(mallocr.o)
 .debug_info    0x0003eb84      0x829 C:/Cygnus/thumbelf-981216/H-i586-cygwin32/thumb-elf/lib//libg.a(mlock.o)
 .debug_info    0x0003f3ad      0x950 C:/Cygnus/thumbelf-981216/H-i586-cygwin32/thumb-elf/lib//libg.a(sbrkr.o)
 .debug_info    0x0003fcfd     0x17d8 C:/Cygnus/thumbelf-981216/H-i586-cygwin32/thumb-elf/lib//libg.a(syscalls.o)
 .debug_info    0x000414d5      0x77c C:/Cygnus/thumbelf-981216/H-i586-cygwin32/thumb-elf/lib//libg.a(errno.o)
 .debug_info    0x00041c51      0xc94 C:/Cygnus/thumbelf-981216/H-i586-cygwin32/thumb-elf/lib//libg.a(freer.o)
 .debug_info    0x000428e5      0x1b8 C:/Cygnus/thumbelf-981216/H-i586-cygwin32/thumb-elf/lib//libg.a(strlen.o)

.debug_abbrev   0x00000000     0x2664
 *(.debug_abbrev)
 .debug_abbrev  0x00000000      0x19c main.o
 .debug_abbrev  0x0000019c      0x171 prevobj.o
 .debug_abbrev  0x0000030d      0x1cc prevbg.o
 .debug_abbrev  0x000004d9      0x123 prevdata.o
 .debug_abbrev  0x000005fc      0x148 ../mlib//libutl.a(util.o)
 .debug_abbrev  0x00000744      0x12b ../mlib//libutl.a(controller.o)
 .debug_abbrev  0x0000086f      0x150 ../mlib//libmpr.a(datatrans.o)
 .debug_abbrev  0x000009bf      0x21f ../mlib//libmpr.a(objmanage.o)
 .debug_abbrev  0x00000bde      0x195 ../mlib//libmpr.a(object.o)
 .debug_abbrev  0x00000d73      0x218 ../mlib//libmpr.a(bgmanage.o)
 .debug_abbrev  0x00000f8b      0x191 ../mlib//libmpr.a(background.o)
 .debug_abbrev  0x0000111c      0x1ff ../mlib//libmpr.a(node.o)
 .debug_abbrev  0x0000131b      0x162 ../mlib//libmpr.a(node_object.o)
 .debug_abbrev  0x0000147d      0x162 ../mlib//libmpr.a(node_image.o)
 .debug_abbrev  0x000015df      0x194 ../mlib//libmpr.a(node_animation.o)
 .debug_abbrev  0x00001773      0x13c ../mlib//libmpr.a(node_background.o)
 .debug_abbrev  0x000018af      0x18c ../mlib//libmpr.a(ch_alloc.o)
 .debug_abbrev  0x00001a3b      0x11c ../mlib//libmpr.a(mpr.o)
 .debug_abbrev  0x00001b57       0x20 C:/Cygnus/thumbelf-981216/H-i586-cygwin32/lib/gcc-lib/thumb-elf/2.9-armelf-981216//libgcc.a(__main.o)
 .debug_abbrev  0x00001b77        0xd C:/Cygnus/thumbelf-981216/H-i586-cygwin32/lib/gcc-lib/thumb-elf/2.9-armelf-981216//libgcc.a(_ctors.o)
 .debug_abbrev  0x00001b84        0xd C:/Cygnus/thumbelf-981216/H-i586-cygwin32/lib/gcc-lib/thumb-elf/2.9-armelf-981216//libgcc.a(_exit.o)
 .debug_abbrev  0x00001b91      0x118 C:/Cygnus/thumbelf-981216/H-i586-cygwin32/thumb-elf/lib//libg.a(atexit.o)
 .debug_abbrev  0x00001ca9       0xc9 C:/Cygnus/thumbelf-981216/H-i586-cygwin32/thumb-elf/lib//libg.a(impure.o)
 .debug_abbrev  0x00001d72      0x10c C:/Cygnus/thumbelf-981216/H-i586-cygwin32/thumb-elf/lib//libg.a(malloc.o)
 .debug_abbrev  0x00001e7e      0x14b C:/Cygnus/thumbelf-981216/H-i586-cygwin32/thumb-elf/lib//libg.a(mallocr.o)
 .debug_abbrev  0x00001fc9       0xca C:/Cygnus/thumbelf-981216/H-i586-cygwin32/thumb-elf/lib//libg.a(mlock.o)
 .debug_abbrev  0x00002093      0x104 C:/Cygnus/thumbelf-981216/H-i586-cygwin32/thumb-elf/lib//libg.a(sbrkr.o)
 .debug_abbrev  0x00002197      0x244 C:/Cygnus/thumbelf-981216/H-i586-cygwin32/thumb-elf/lib//libg.a(syscalls.o)
 .debug_abbrev  0x000023db       0xd7 C:/Cygnus/thumbelf-981216/H-i586-cygwin32/thumb-elf/lib//libg.a(errno.o)
 .debug_abbrev  0x000024b2      0x140 C:/Cygnus/thumbelf-981216/H-i586-cygwin32/thumb-elf/lib//libg.a(freer.o)
 .debug_abbrev  0x000025f2       0x72 C:/Cygnus/thumbelf-981216/H-i586-cygwin32/thumb-elf/lib//libg.a(strlen.o)

.debug_line     0x00000000     0x6d0c
 *(.debug_line)
 .debug_line    0x00000000      0x288 main.o
 .debug_line    0x00000288      0x343 prevobj.o
 .debug_line    0x000005cb      0x688 prevbg.o
 .debug_line    0x00000c53      0x308 ../mlib//libutl.a(util.o)
 .debug_line    0x00000f5b       0xec ../mlib//libutl.a(controller.o)
 .debug_line    0x00001047      0x30a ../mlib//libmpr.a(datatrans.o)
 .debug_line    0x00001351      0x93a ../mlib//libmpr.a(objmanage.o)
 .debug_line    0x00001c8b      0x453 ../mlib//libmpr.a(object.o)
 .debug_line    0x000020de      0x968 ../mlib//libmpr.a(bgmanage.o)
 .debug_line    0x00002a46      0x552 ../mlib//libmpr.a(background.o)
 .debug_line    0x00002f98      0x419 ../mlib//libmpr.a(node.o)
 .debug_line    0x000033b1      0x1c0 ../mlib//libmpr.a(node_object.o)
 .debug_line    0x00003571      0x1af ../mlib//libmpr.a(node_image.o)
 .debug_line    0x00003720      0x6cf ../mlib//libmpr.a(node_animation.o)
 .debug_line    0x00003def      0x147 ../mlib//libmpr.a(node_background.o)
 .debug_line    0x00003f36      0x35a ../mlib//libmpr.a(ch_alloc.o)
 .debug_line    0x00004290      0x116 ../mlib//libmpr.a(mpr.o)
 .debug_line    0x000043a6      0x2e2 C:/Cygnus/thumbelf-981216/H-i586-cygwin32/thumb-elf/lib//libg.a(atexit.o)
 .debug_line    0x00004688      0x30a C:/Cygnus/thumbelf-981216/H-i586-cygwin32/thumb-elf/lib//libg.a(malloc.o)
 .debug_line    0x00004992      0x80c C:/Cygnus/thumbelf-981216/H-i586-cygwin32/thumb-elf/lib//libg.a(mallocr.o)
 .debug_line    0x0000519e      0x235 C:/Cygnus/thumbelf-981216/H-i586-cygwin32/thumb-elf/lib//libg.a(mlock.o)
 .debug_line    0x000053d3      0x2b3 C:/Cygnus/thumbelf-981216/H-i586-cygwin32/thumb-elf/lib//libg.a(sbrkr.o)
 .debug_line    0x00005686      0xd3b C:/Cygnus/thumbelf-981216/H-i586-cygwin32/thumb-elf/lib//libg.a(syscalls.o)
 .debug_line    0x000063c1      0x230 C:/Cygnus/thumbelf-981216/H-i586-cygwin32/thumb-elf/lib//libg.a(errno.o)
 .debug_line    0x000065f1      0x558 C:/Cygnus/thumbelf-981216/H-i586-cygwin32/thumb-elf/lib//libg.a(freer.o)
 .debug_line    0x00006b49      0x1c3 C:/Cygnus/thumbelf-981216/H-i586-cygwin32/thumb-elf/lib//libg.a(strlen.o)

.debug_frame
 *(.debug_frame)

.debug_str
 *(.debug_str)

.debug_loc
 *(.debug_loc)

.debug_macinfo
 *(.debug_macinfo)

.debug_weaknames
 *(.debug_weaknames)

.debug_funcnames
 *(.debug_funcnames)

.debug_typenames
 *(.debug_typenames)

.debug_varnames
 *(.debug_varnames)

.stack          0x00080000        0x0
                0x00080000                _stack=.
 *(.stack)
OUTPUT(agbprev.elf elf32-littlearm)
